
./coremark.elf:     file format elf32-littleriscv


Disassembly of section .text:

00000000 <_start>:
       0:	0001a297          	auipc	t0,0x1a
       4:	01028293          	addi	t0,t0,16 # 1a010 <trap_handler>
       8:	30529073          	csrw	mtvec,t0
       c:	3050e073          	csrsi	mtvec,1
      10:	0001c297          	auipc	t0,0x1c
      14:	b7028293          	addi	t0,t0,-1168 # 1bb80 <stop_time_val>
      18:	0001c317          	auipc	t1,0x1c
      1c:	cf830313          	addi	t1,t1,-776 # 1bd10 <_bss_end>

00000020 <_bss_clear>:
      20:	0002a023          	sw	zero,0(t0)
      24:	00428293          	addi	t0,t0,4
      28:	fe62ece3          	bltu	t0,t1,20 <_bss_clear>
      2c:	00020117          	auipc	sp,0x20
      30:	ce410113          	addi	sp,sp,-796 # 1fd10 <_stack>
      34:	0fc020ef          	jal	2130 <main>
      38:	3e81a06f          	j	1a420 <exit>
      3c:	0000                	.insn	2, 0x
	...

00000040 <calc_func>:
      40:	fe010113          	addi	sp,sp,-32
      44:	00812c23          	sw	s0,24(sp)
      48:	00051403          	lh	s0,0(a0)
      4c:	00112e23          	sw	ra,28(sp)
      50:	40745793          	srai	a5,s0,0x7
      54:	0017f793          	andi	a5,a5,1
      58:	00078c63          	beqz	a5,70 <calc_func+0x30>
      5c:	01c12083          	lw	ra,28(sp)
      60:	07f47513          	andi	a0,s0,127
      64:	01812403          	lw	s0,24(sp)
      68:	02010113          	addi	sp,sp,32
      6c:	00008067          	ret
      70:	00912a23          	sw	s1,20(sp)
      74:	00058493          	mv	s1,a1
      78:	40345593          	srai	a1,s0,0x3
      7c:	00f5f593          	andi	a1,a1,15
      80:	01312623          	sw	s3,12(sp)
      84:	00459693          	slli	a3,a1,0x4
      88:	01212823          	sw	s2,16(sp)
      8c:	00747713          	andi	a4,s0,7
      90:	0384d783          	lhu	a5,56(s1)
      94:	00050993          	mv	s3,a0
      98:	00d585b3          	add	a1,a1,a3
      9c:	06070e63          	beqz	a4,118 <calc_func+0xd8>
      a0:	00100693          	li	a3,1
      a4:	06d71263          	bne	a4,a3,108 <calc_func+0xc8>
      a8:	00078613          	mv	a2,a5
      ac:	02848513          	addi	a0,s1,40
      b0:	341020ef          	jal	2bf0 <core_bench_matrix>
      b4:	03c4d783          	lhu	a5,60(s1)
      b8:	01051913          	slli	s2,a0,0x10
      bc:	41095913          	srai	s2,s2,0x10
      c0:	08078c63          	beqz	a5,158 <calc_func+0x118>
      c4:	0384d783          	lhu	a5,56(s1)
      c8:	00078593          	mv	a1,a5
      cc:	624080ef          	jal	86f0 <crcu16>
      d0:	00050793          	mv	a5,a0
      d4:	f0047413          	andi	s0,s0,-256
      d8:	07f97513          	andi	a0,s2,127
      dc:	00856433          	or	s0,a0,s0
      e0:	02f49c23          	sh	a5,56(s1)
      e4:	08046413          	ori	s0,s0,128
      e8:	00899023          	sh	s0,0(s3)
      ec:	01c12083          	lw	ra,28(sp)
      f0:	01812403          	lw	s0,24(sp)
      f4:	01412483          	lw	s1,20(sp)
      f8:	01012903          	lw	s2,16(sp)
      fc:	00c12983          	lw	s3,12(sp)
     100:	02010113          	addi	sp,sp,32
     104:	00008067          	ret
     108:	01041513          	slli	a0,s0,0x10
     10c:	00040913          	mv	s2,s0
     110:	01055513          	srli	a0,a0,0x10
     114:	fb5ff06f          	j	c8 <calc_func+0x88>
     118:	02200693          	li	a3,34
     11c:	00058713          	mv	a4,a1
     120:	00d5d463          	bge	a1,a3,128 <calc_func+0xe8>
     124:	00068713          	mv	a4,a3
     128:	00249683          	lh	a3,2(s1)
     12c:	00049603          	lh	a2,0(s1)
     130:	0144a583          	lw	a1,20(s1)
     134:	0184a503          	lw	a0,24(s1)
     138:	1ff77713          	andi	a4,a4,511
     13c:	324070ef          	jal	7460 <core_bench_state>
     140:	03e4d783          	lhu	a5,62(s1)
     144:	01051913          	slli	s2,a0,0x10
     148:	41095913          	srai	s2,s2,0x10
     14c:	00078c63          	beqz	a5,164 <calc_func+0x124>
     150:	0384d783          	lhu	a5,56(s1)
     154:	f75ff06f          	j	c8 <calc_func+0x88>
     158:	0384d783          	lhu	a5,56(s1)
     15c:	02a49e23          	sh	a0,60(s1)
     160:	f69ff06f          	j	c8 <calc_func+0x88>
     164:	0384d783          	lhu	a5,56(s1)
     168:	02a49f23          	sh	a0,62(s1)
     16c:	f5dff06f          	j	c8 <calc_func+0x88>

00000170 <cmp_complex>:
     170:	fe010113          	addi	sp,sp,-32
     174:	00912a23          	sw	s1,20(sp)
     178:	00051483          	lh	s1,0(a0)
     17c:	00812c23          	sw	s0,24(sp)
     180:	01212823          	sw	s2,16(sp)
     184:	4074d793          	srai	a5,s1,0x7
     188:	00112e23          	sw	ra,28(sp)
     18c:	01312623          	sw	s3,12(sp)
     190:	01412423          	sw	s4,8(sp)
     194:	0017f793          	andi	a5,a5,1
     198:	00058913          	mv	s2,a1
     19c:	00060413          	mv	s0,a2
     1a0:	04078063          	beqz	a5,1e0 <cmp_complex+0x70>
     1a4:	07f4fa13          	andi	s4,s1,127
     1a8:	00091483          	lh	s1,0(s2)
     1ac:	4074d793          	srai	a5,s1,0x7
     1b0:	0017f793          	andi	a5,a5,1
     1b4:	0a078263          	beqz	a5,258 <cmp_complex+0xe8>
     1b8:	07f4f993          	andi	s3,s1,127
     1bc:	01c12083          	lw	ra,28(sp)
     1c0:	01812403          	lw	s0,24(sp)
     1c4:	413a0533          	sub	a0,s4,s3
     1c8:	01412483          	lw	s1,20(sp)
     1cc:	01012903          	lw	s2,16(sp)
     1d0:	00c12983          	lw	s3,12(sp)
     1d4:	00812a03          	lw	s4,8(sp)
     1d8:	02010113          	addi	sp,sp,32
     1dc:	00008067          	ret
     1e0:	4034d593          	srai	a1,s1,0x3
     1e4:	00f5f593          	andi	a1,a1,15
     1e8:	00459693          	slli	a3,a1,0x4
     1ec:	0074f713          	andi	a4,s1,7
     1f0:	03865783          	lhu	a5,56(a2)
     1f4:	00050993          	mv	s3,a0
     1f8:	00d585b3          	add	a1,a1,a3
     1fc:	12070263          	beqz	a4,320 <cmp_complex+0x1b0>
     200:	00100693          	li	a3,1
     204:	0ad71e63          	bne	a4,a3,2c0 <cmp_complex+0x150>
     208:	00078613          	mv	a2,a5
     20c:	02840513          	addi	a0,s0,40
     210:	1e1020ef          	jal	2bf0 <core_bench_matrix>
     214:	03c45783          	lhu	a5,60(s0)
     218:	01051a13          	slli	s4,a0,0x10
     21c:	410a5a13          	srai	s4,s4,0x10
     220:	14078c63          	beqz	a5,378 <cmp_complex+0x208>
     224:	03845783          	lhu	a5,56(s0)
     228:	00078593          	mv	a1,a5
     22c:	07fa7a13          	andi	s4,s4,127
     230:	f004f493          	andi	s1,s1,-256
     234:	4bc080ef          	jal	86f0 <crcu16>
     238:	009a64b3          	or	s1,s4,s1
     23c:	02a41c23          	sh	a0,56(s0)
     240:	0804e493          	ori	s1,s1,128
     244:	00999023          	sh	s1,0(s3)
     248:	00091483          	lh	s1,0(s2)
     24c:	4074d793          	srai	a5,s1,0x7
     250:	0017f793          	andi	a5,a5,1
     254:	f60792e3          	bnez	a5,1b8 <cmp_complex+0x48>
     258:	4034d593          	srai	a1,s1,0x3
     25c:	00f5f593          	andi	a1,a1,15
     260:	00459693          	slli	a3,a1,0x4
     264:	0074f713          	andi	a4,s1,7
     268:	03845783          	lhu	a5,56(s0)
     26c:	00d585b3          	add	a1,a1,a3
     270:	06070863          	beqz	a4,2e0 <cmp_complex+0x170>
     274:	00100693          	li	a3,1
     278:	04d71c63          	bne	a4,a3,2d0 <cmp_complex+0x160>
     27c:	00078613          	mv	a2,a5
     280:	02840513          	addi	a0,s0,40
     284:	16d020ef          	jal	2bf0 <core_bench_matrix>
     288:	03c45783          	lhu	a5,60(s0)
     28c:	01051993          	slli	s3,a0,0x10
     290:	4109d993          	srai	s3,s3,0x10
     294:	0e078863          	beqz	a5,384 <cmp_complex+0x214>
     298:	03845783          	lhu	a5,56(s0)
     29c:	00078593          	mv	a1,a5
     2a0:	07f9f993          	andi	s3,s3,127
     2a4:	f004f493          	andi	s1,s1,-256
     2a8:	448080ef          	jal	86f0 <crcu16>
     2ac:	0099e4b3          	or	s1,s3,s1
     2b0:	02a41c23          	sh	a0,56(s0)
     2b4:	0804e493          	ori	s1,s1,128
     2b8:	00991023          	sh	s1,0(s2)
     2bc:	f01ff06f          	j	1bc <cmp_complex+0x4c>
     2c0:	01049513          	slli	a0,s1,0x10
     2c4:	00048a13          	mv	s4,s1
     2c8:	01055513          	srli	a0,a0,0x10
     2cc:	f5dff06f          	j	228 <cmp_complex+0xb8>
     2d0:	01049513          	slli	a0,s1,0x10
     2d4:	00048993          	mv	s3,s1
     2d8:	01055513          	srli	a0,a0,0x10
     2dc:	fc1ff06f          	j	29c <cmp_complex+0x12c>
     2e0:	02200693          	li	a3,34
     2e4:	00058713          	mv	a4,a1
     2e8:	00d5d463          	bge	a1,a3,2f0 <cmp_complex+0x180>
     2ec:	00068713          	mv	a4,a3
     2f0:	00241683          	lh	a3,2(s0)
     2f4:	00041603          	lh	a2,0(s0)
     2f8:	01442583          	lw	a1,20(s0)
     2fc:	01842503          	lw	a0,24(s0)
     300:	1ff77713          	andi	a4,a4,511
     304:	15c070ef          	jal	7460 <core_bench_state>
     308:	03e45783          	lhu	a5,62(s0)
     30c:	01051993          	slli	s3,a0,0x10
     310:	4109d993          	srai	s3,s3,0x10
     314:	04078663          	beqz	a5,360 <cmp_complex+0x1f0>
     318:	03845783          	lhu	a5,56(s0)
     31c:	f81ff06f          	j	29c <cmp_complex+0x12c>
     320:	02200693          	li	a3,34
     324:	00058713          	mv	a4,a1
     328:	00d5d463          	bge	a1,a3,330 <cmp_complex+0x1c0>
     32c:	00068713          	mv	a4,a3
     330:	00241683          	lh	a3,2(s0)
     334:	00041603          	lh	a2,0(s0)
     338:	01442583          	lw	a1,20(s0)
     33c:	01842503          	lw	a0,24(s0)
     340:	1ff77713          	andi	a4,a4,511
     344:	11c070ef          	jal	7460 <core_bench_state>
     348:	03e45783          	lhu	a5,62(s0)
     34c:	01051a13          	slli	s4,a0,0x10
     350:	410a5a13          	srai	s4,s4,0x10
     354:	00078c63          	beqz	a5,36c <cmp_complex+0x1fc>
     358:	03845783          	lhu	a5,56(s0)
     35c:	ecdff06f          	j	228 <cmp_complex+0xb8>
     360:	03845783          	lhu	a5,56(s0)
     364:	02a41f23          	sh	a0,62(s0)
     368:	f35ff06f          	j	29c <cmp_complex+0x12c>
     36c:	03845783          	lhu	a5,56(s0)
     370:	02a41f23          	sh	a0,62(s0)
     374:	eb5ff06f          	j	228 <cmp_complex+0xb8>
     378:	03845783          	lhu	a5,56(s0)
     37c:	02a41e23          	sh	a0,60(s0)
     380:	ea9ff06f          	j	228 <cmp_complex+0xb8>
     384:	03845783          	lhu	a5,56(s0)
     388:	02a41e23          	sh	a0,60(s0)
     38c:	f11ff06f          	j	29c <cmp_complex+0x12c>

00000390 <cmp_idx>:
     390:	00060a63          	beqz	a2,3a4 <cmp_idx+0x14>
     394:	00251503          	lh	a0,2(a0)
     398:	00259783          	lh	a5,2(a1)
     39c:	40f50533          	sub	a0,a0,a5
     3a0:	00008067          	ret
     3a4:	00051783          	lh	a5,0(a0)
     3a8:	01079713          	slli	a4,a5,0x10
     3ac:	01075713          	srli	a4,a4,0x10
     3b0:	00875713          	srli	a4,a4,0x8
     3b4:	f007f793          	andi	a5,a5,-256
     3b8:	00e7e7b3          	or	a5,a5,a4
     3bc:	00f51023          	sh	a5,0(a0)
     3c0:	00059783          	lh	a5,0(a1)
     3c4:	00251503          	lh	a0,2(a0)
     3c8:	01079713          	slli	a4,a5,0x10
     3cc:	01075713          	srli	a4,a4,0x10
     3d0:	00875713          	srli	a4,a4,0x8
     3d4:	f007f793          	andi	a5,a5,-256
     3d8:	00e7e7b3          	or	a5,a5,a4
     3dc:	00f59023          	sh	a5,0(a1)
     3e0:	00259783          	lh	a5,2(a1)
     3e4:	40f50533          	sub	a0,a0,a5
     3e8:	00008067          	ret
     3ec:	00000013          	nop

000003f0 <copy_info>:
     3f0:	00059703          	lh	a4,0(a1)
     3f4:	00259783          	lh	a5,2(a1)
     3f8:	00e51023          	sh	a4,0(a0)
     3fc:	00f51123          	sh	a5,2(a0)
     400:	00008067          	ret
     404:	00000013          	nop
     408:	00000013          	nop
     40c:	00000013          	nop

00000410 <core_bench_list>:
     410:	fa010113          	addi	sp,sp,-96
     414:	03b12623          	sw	s11,44(sp)
     418:	00050d93          	mv	s11,a0
     41c:	00451503          	lh	a0,4(a0)
     420:	03912a23          	sw	s9,52(sp)
     424:	04112e23          	sw	ra,92(sp)
     428:	04812c23          	sw	s0,88(sp)
     42c:	04912a23          	sw	s1,84(sp)
     430:	05212823          	sw	s2,80(sp)
     434:	05312623          	sw	s3,76(sp)
     438:	05412423          	sw	s4,72(sp)
     43c:	05512223          	sw	s5,68(sp)
     440:	05612023          	sw	s6,64(sp)
     444:	03712e23          	sw	s7,60(sp)
     448:	03812c23          	sw	s8,56(sp)
     44c:	03a12823          	sw	s10,48(sp)
     450:	00012c23          	sw	zero,24(sp)
     454:	024dac83          	lw	s9,36(s11)
     458:	00058893          	mv	a7,a1
     45c:	50a05ee3          	blez	a0,1178 <core_bench_list+0xd68>
     460:	00b12623          	sw	a1,12(sp)
     464:	00000613          	li	a2,0
     468:	00000e13          	li	t3,0
     46c:	00000593          	li	a1,0
     470:	00000313          	li	t1,0
     474:	0ff67793          	zext.b	a5,a2
     478:	00f12c23          	sw	a5,24(sp)
     47c:	00c12783          	lw	a5,12(sp)
     480:	5e07c263          	bltz	a5,a64 <core_bench_list+0x654>
     484:	000c8793          	mv	a5,s9
     488:	000c9863          	bnez	s9,498 <core_bench_list+0x88>
     48c:	61c0006f          	j	aa8 <core_bench_list+0x698>
     490:	0007a783          	lw	a5,0(a5)
     494:	00078a63          	beqz	a5,4a8 <core_bench_list+0x98>
     498:	0047a703          	lw	a4,4(a5)
     49c:	00c12683          	lw	a3,12(sp)
     4a0:	00271703          	lh	a4,2(a4)
     4a4:	fed716e3          	bne	a4,a3,490 <core_bench_list+0x80>
     4a8:	020c8063          	beqz	s9,4c8 <core_bench_list+0xb8>
     4ac:	00000693          	li	a3,0
     4b0:	0080006f          	j	4b8 <core_bench_list+0xa8>
     4b4:	00070c93          	mv	s9,a4
     4b8:	000ca703          	lw	a4,0(s9)
     4bc:	00dca023          	sw	a3,0(s9)
     4c0:	000c8693          	mv	a3,s9
     4c4:	fe0718e3          	bnez	a4,4b4 <core_bench_list+0xa4>
     4c8:	5e078063          	beqz	a5,aa8 <core_bench_list+0x698>
     4cc:	0047a703          	lw	a4,4(a5)
     4d0:	00158593          	addi	a1,a1,1
     4d4:	01059593          	slli	a1,a1,0x10
     4d8:	00071703          	lh	a4,0(a4)
     4dc:	0105d593          	srli	a1,a1,0x10
     4e0:	00177693          	andi	a3,a4,1
     4e4:	00068c63          	beqz	a3,4fc <core_bench_list+0xec>
     4e8:	40975713          	srai	a4,a4,0x9
     4ec:	00177713          	andi	a4,a4,1
     4f0:	00670733          	add	a4,a4,t1
     4f4:	01071313          	slli	t1,a4,0x10
     4f8:	01035313          	srli	t1,t1,0x10
     4fc:	0007a703          	lw	a4,0(a5)
     500:	54070263          	beqz	a4,a44 <core_bench_list+0x634>
     504:	00072683          	lw	a3,0(a4)
     508:	00d7a023          	sw	a3,0(a5)
     50c:	000ca783          	lw	a5,0(s9)
     510:	00f72023          	sw	a5,0(a4)
     514:	00c12783          	lw	a5,12(sp)
     518:	00eca023          	sw	a4,0(s9)
     51c:	5e07c863          	bltz	a5,b0c <core_bench_list+0x6fc>
     520:	00c12783          	lw	a5,12(sp)
     524:	00160613          	addi	a2,a2,1
     528:	01061613          	slli	a2,a2,0x10
     52c:	00178b93          	addi	s7,a5,1
     530:	010b9793          	slli	a5,s7,0x10
     534:	4107d793          	srai	a5,a5,0x10
     538:	41065613          	srai	a2,a2,0x10
     53c:	00f12623          	sw	a5,12(sp)
     540:	f2c51ae3          	bne	a0,a2,474 <core_bench_list+0x64>
     544:	00259b13          	slli	s6,a1,0x2
     548:	41cb0b33          	sub	s6,s6,t3
     54c:	006b0b33          	add	s6,s6,t1
     550:	010b1793          	slli	a5,s6,0x10
     554:	0107d793          	srli	a5,a5,0x10
     558:	00f12e23          	sw	a5,28(sp)
     55c:	5d104663          	bgtz	a7,b28 <core_bench_list+0x718>
     560:	000ca783          	lw	a5,0(s9)
     564:	000c8413          	mv	s0,s9
     568:	0007a483          	lw	s1,0(a5)
     56c:	0047a703          	lw	a4,4(a5)
     570:	0044a603          	lw	a2,4(s1)
     574:	0004a683          	lw	a3,0(s1)
     578:	00c7a223          	sw	a2,4(a5)
     57c:	00e4a223          	sw	a4,4(s1)
     580:	00d7a023          	sw	a3,0(a5)
     584:	00c12783          	lw	a5,12(sp)
     588:	0004a023          	sw	zero,0(s1)
     58c:	2207c863          	bltz	a5,7bc <core_bench_list+0x3ac>
     590:	00442783          	lw	a5,4(s0)
     594:	00c12683          	lw	a3,12(sp)
     598:	00279783          	lh	a5,2(a5)
     59c:	00d78e63          	beq	a5,a3,5b8 <core_bench_list+0x1a8>
     5a0:	00042403          	lw	s0,0(s0)
     5a4:	3a040ce3          	beqz	s0,115c <core_bench_list+0xd4c>
     5a8:	00442783          	lw	a5,4(s0)
     5ac:	00c12683          	lw	a3,12(sp)
     5b0:	00279783          	lh	a5,2(a5)
     5b4:	fed796e3          	bne	a5,a3,5a0 <core_bench_list+0x190>
     5b8:	3a0402e3          	beqz	s0,115c <core_bench_list+0xd4c>
     5bc:	004ca783          	lw	a5,4(s9)
     5c0:	01c12583          	lw	a1,28(sp)
     5c4:	00079503          	lh	a0,0(a5)
     5c8:	019080ef          	jal	8de0 <crc16>
     5cc:	00042403          	lw	s0,0(s0)
     5d0:	00a12e23          	sw	a0,28(sp)
     5d4:	fe0414e3          	bnez	s0,5bc <core_bench_list+0x1ac>
     5d8:	000ca783          	lw	a5,0(s9)
     5dc:	0044a703          	lw	a4,4(s1)
     5e0:	0047a603          	lw	a2,4(a5)
     5e4:	0007a683          	lw	a3,0(a5)
     5e8:	00100f13          	li	t5,1
     5ec:	00c4a223          	sw	a2,4(s1)
     5f0:	00e7a223          	sw	a4,4(a5)
     5f4:	00d4a023          	sw	a3,0(s1)
     5f8:	0097a023          	sw	s1,0(a5)
     5fc:	000f0293          	mv	t0,t5
     600:	200c8263          	beqz	s9,804 <core_bench_list+0x3f4>
     604:	00000413          	li	s0,0
     608:	00000693          	li	a3,0
     60c:	00000f93          	li	t6,0
     610:	007f7613          	andi	a2,t5,7
     614:	000c8713          	mv	a4,s9
     618:	00000793          	li	a5,0
     61c:	001f8f93          	addi	t6,t6,1
     620:	08060463          	beqz	a2,6a8 <core_bench_list+0x298>
     624:	0fe7d663          	bge	a5,t5,710 <core_bench_list+0x300>
     628:	000ca703          	lw	a4,0(s9)
     62c:	00200593          	li	a1,2
     630:	00300513          	li	a0,3
     634:	00400893          	li	a7,4
     638:	00100793          	li	a5,1
     63c:	0c070a63          	beqz	a4,710 <core_bench_list+0x300>
     640:	06f60463          	beq	a2,a5,6a8 <core_bench_list+0x298>
     644:	04b60c63          	beq	a2,a1,69c <core_bench_list+0x28c>
     648:	04a60463          	beq	a2,a0,690 <core_bench_list+0x280>
     64c:	03160c63          	beq	a2,a7,684 <core_bench_list+0x274>
     650:	00500513          	li	a0,5
     654:	02a60263          	beq	a2,a0,678 <core_bench_list+0x268>
     658:	00600513          	li	a0,6
     65c:	00a60863          	beq	a2,a0,66c <core_bench_list+0x25c>
     660:	00072703          	lw	a4,0(a4)
     664:	00058793          	mv	a5,a1
     668:	0a070463          	beqz	a4,710 <core_bench_list+0x300>
     66c:	00072703          	lw	a4,0(a4)
     670:	00178793          	addi	a5,a5,1
     674:	08070e63          	beqz	a4,710 <core_bench_list+0x300>
     678:	00072703          	lw	a4,0(a4)
     67c:	00178793          	addi	a5,a5,1
     680:	08070863          	beqz	a4,710 <core_bench_list+0x300>
     684:	00072703          	lw	a4,0(a4)
     688:	00178793          	addi	a5,a5,1
     68c:	08070263          	beqz	a4,710 <core_bench_list+0x300>
     690:	00072703          	lw	a4,0(a4)
     694:	00178793          	addi	a5,a5,1
     698:	06070c63          	beqz	a4,710 <core_bench_list+0x300>
     69c:	00072703          	lw	a4,0(a4)
     6a0:	00178793          	addi	a5,a5,1
     6a4:	06070663          	beqz	a4,710 <core_bench_list+0x300>
     6a8:	07e7d463          	bge	a5,t5,710 <core_bench_list+0x300>
     6ac:	00072703          	lw	a4,0(a4)
     6b0:	00178793          	addi	a5,a5,1
     6b4:	00078613          	mv	a2,a5
     6b8:	04070c63          	beqz	a4,710 <core_bench_list+0x300>
     6bc:	00072703          	lw	a4,0(a4)
     6c0:	00178793          	addi	a5,a5,1
     6c4:	04070663          	beqz	a4,710 <core_bench_list+0x300>
     6c8:	00072703          	lw	a4,0(a4)
     6cc:	00260793          	addi	a5,a2,2
     6d0:	04070063          	beqz	a4,710 <core_bench_list+0x300>
     6d4:	00072703          	lw	a4,0(a4)
     6d8:	00360793          	addi	a5,a2,3
     6dc:	02070a63          	beqz	a4,710 <core_bench_list+0x300>
     6e0:	00072703          	lw	a4,0(a4)
     6e4:	00460793          	addi	a5,a2,4
     6e8:	02070463          	beqz	a4,710 <core_bench_list+0x300>
     6ec:	00072703          	lw	a4,0(a4)
     6f0:	00560793          	addi	a5,a2,5
     6f4:	00070e63          	beqz	a4,710 <core_bench_list+0x300>
     6f8:	00072703          	lw	a4,0(a4)
     6fc:	00660793          	addi	a5,a2,6
     700:	00070863          	beqz	a4,710 <core_bench_list+0x300>
     704:	00072703          	lw	a4,0(a4)
     708:	00760793          	addi	a5,a2,7
     70c:	f8071ee3          	bnez	a4,6a8 <core_bench_list+0x298>
     710:	000f0e13          	mv	t3,t5
     714:	02f05463          	blez	a5,73c <core_bench_list+0x32c>
     718:	0a0e0c63          	beqz	t3,7d0 <core_bench_list+0x3c0>
     71c:	02071663          	bnez	a4,748 <core_bench_list+0x338>
     720:	000c8613          	mv	a2,s9
     724:	000cac83          	lw	s9,0(s9)
     728:	fff78793          	addi	a5,a5,-1
     72c:	06068e63          	beqz	a3,7a8 <core_bench_list+0x398>
     730:	00c6a023          	sw	a2,0(a3)
     734:	00060693          	mv	a3,a2
     738:	fef040e3          	bgtz	a5,718 <core_bench_list+0x308>
     73c:	21c05ce3          	blez	t3,1154 <core_bench_list+0xd44>
     740:	28070063          	beqz	a4,9c0 <core_bench_list+0x5b0>
     744:	0c078a63          	beqz	a5,818 <core_bench_list+0x408>
     748:	004ca883          	lw	a7,4(s9)
     74c:	00472503          	lw	a0,4(a4)
     750:	00089603          	lh	a2,0(a7)
     754:	00251e83          	lh	t4,2(a0)
     758:	00289583          	lh	a1,2(a7)
     75c:	01061313          	slli	t1,a2,0x10
     760:	01035313          	srli	t1,t1,0x10
     764:	f0067613          	andi	a2,a2,-256
     768:	00835313          	srli	t1,t1,0x8
     76c:	00666633          	or	a2,a2,t1
     770:	00c89023          	sh	a2,0(a7)
     774:	00051603          	lh	a2,0(a0)
     778:	41d585b3          	sub	a1,a1,t4
     77c:	01061893          	slli	a7,a2,0x10
     780:	0108d893          	srli	a7,a7,0x10
     784:	f0067613          	andi	a2,a2,-256
     788:	0088d893          	srli	a7,a7,0x8
     78c:	01166633          	or	a2,a2,a7
     790:	00c51023          	sh	a2,0(a0)
     794:	06b05a63          	blez	a1,808 <core_bench_list+0x3f8>
     798:	00070613          	mv	a2,a4
     79c:	fffe0e13          	addi	t3,t3,-1
     7a0:	00072703          	lw	a4,0(a4)
     7a4:	f80696e3          	bnez	a3,730 <core_bench_list+0x320>
     7a8:	00060413          	mv	s0,a2
     7ac:	00060693          	mv	a3,a2
     7b0:	f89ff06f          	j	738 <core_bench_list+0x328>
     7b4:	00042403          	lw	s0,0(s0)
     7b8:	1a0402e3          	beqz	s0,115c <core_bench_list+0xd4c>
     7bc:	00442783          	lw	a5,4(s0)
     7c0:	01812683          	lw	a3,24(sp)
     7c4:	0007c783          	lbu	a5,0(a5)
     7c8:	fef696e3          	bne	a3,a5,7b4 <core_bench_list+0x3a4>
     7cc:	dedff06f          	j	5b8 <core_bench_list+0x1a8>
     7d0:	000ca603          	lw	a2,0(s9)
     7d4:	fff78793          	addi	a5,a5,-1
     7d8:	02068063          	beqz	a3,7f8 <core_bench_list+0x3e8>
     7dc:	0196a023          	sw	s9,0(a3)
     7e0:	1e078c63          	beqz	a5,9d8 <core_bench_list+0x5c8>
     7e4:	000c8693          	mv	a3,s9
     7e8:	00060c93          	mv	s9,a2
     7ec:	000ca603          	lw	a2,0(s9)
     7f0:	fff78793          	addi	a5,a5,-1
     7f4:	fe0694e3          	bnez	a3,7dc <core_bench_list+0x3cc>
     7f8:	1c078e63          	beqz	a5,9d4 <core_bench_list+0x5c4>
     7fc:	000c8413          	mv	s0,s9
     800:	fe5ff06f          	j	7e4 <core_bench_list+0x3d4>
     804:	6b80106f          	j	1ebc <core_bench_list.cold>
     808:	000c8613          	mv	a2,s9
     80c:	fff78793          	addi	a5,a5,-1
     810:	000cac83          	lw	s9,0(s9)
     814:	f19ff06f          	j	72c <core_bench_list+0x31c>
     818:	fffe0593          	addi	a1,t3,-1
     81c:	0075f793          	andi	a5,a1,7
     820:	0e078a63          	beqz	a5,914 <core_bench_list+0x504>
     824:	00072603          	lw	a2,0(a4)
     828:	00058e13          	mv	t3,a1
     82c:	20068863          	beqz	a3,a3c <core_bench_list+0x62c>
     830:	00e6a023          	sw	a4,0(a3)
     834:	00100593          	li	a1,1
     838:	00200513          	li	a0,2
     83c:	00300813          	li	a6,3
     840:	00400893          	li	a7,4
     844:	00070693          	mv	a3,a4
     848:	16060c63          	beqz	a2,9c0 <core_bench_list+0x5b0>
     84c:	00060713          	mv	a4,a2
     850:	0cb78263          	beq	a5,a1,914 <core_bench_list+0x504>
     854:	0aa78263          	beq	a5,a0,8f8 <core_bench_list+0x4e8>
     858:	09078263          	beq	a5,a6,8dc <core_bench_list+0x4cc>
     85c:	07178263          	beq	a5,a7,8c0 <core_bench_list+0x4b0>
     860:	00500593          	li	a1,5
     864:	04b78063          	beq	a5,a1,8a4 <core_bench_list+0x494>
     868:	00600593          	li	a1,6
     86c:	00b78e63          	beq	a5,a1,888 <core_bench_list+0x478>
     870:	00062703          	lw	a4,0(a2)
     874:	fffe0e13          	addi	t3,t3,-1
     878:	28068663          	beqz	a3,b04 <core_bench_list+0x6f4>
     87c:	00c6a023          	sw	a2,0(a3)
     880:	00060693          	mv	a3,a2
     884:	12070e63          	beqz	a4,9c0 <core_bench_list+0x5b0>
     888:	00072783          	lw	a5,0(a4)
     88c:	fffe0e13          	addi	t3,t3,-1
     890:	26068663          	beqz	a3,afc <core_bench_list+0x6ec>
     894:	00e6a023          	sw	a4,0(a3)
     898:	00070693          	mv	a3,a4
     89c:	12078263          	beqz	a5,9c0 <core_bench_list+0x5b0>
     8a0:	00078713          	mv	a4,a5
     8a4:	00072783          	lw	a5,0(a4)
     8a8:	fffe0e13          	addi	t3,t3,-1
     8ac:	24068463          	beqz	a3,af4 <core_bench_list+0x6e4>
     8b0:	00e6a023          	sw	a4,0(a3)
     8b4:	00070693          	mv	a3,a4
     8b8:	10078463          	beqz	a5,9c0 <core_bench_list+0x5b0>
     8bc:	00078713          	mv	a4,a5
     8c0:	00072783          	lw	a5,0(a4)
     8c4:	fffe0e13          	addi	t3,t3,-1
     8c8:	1c068c63          	beqz	a3,aa0 <core_bench_list+0x690>
     8cc:	00e6a023          	sw	a4,0(a3)
     8d0:	00070693          	mv	a3,a4
     8d4:	0e078663          	beqz	a5,9c0 <core_bench_list+0x5b0>
     8d8:	00078713          	mv	a4,a5
     8dc:	00072783          	lw	a5,0(a4)
     8e0:	fffe0e13          	addi	t3,t3,-1
     8e4:	1a068a63          	beqz	a3,a98 <core_bench_list+0x688>
     8e8:	00e6a023          	sw	a4,0(a3)
     8ec:	00070693          	mv	a3,a4
     8f0:	0c078863          	beqz	a5,9c0 <core_bench_list+0x5b0>
     8f4:	00078713          	mv	a4,a5
     8f8:	00072783          	lw	a5,0(a4)
     8fc:	fffe0e13          	addi	t3,t3,-1
     900:	18068863          	beqz	a3,a90 <core_bench_list+0x680>
     904:	00e6a023          	sw	a4,0(a3)
     908:	00070693          	mv	a3,a4
     90c:	0a078a63          	beqz	a5,9c0 <core_bench_list+0x5b0>
     910:	00078713          	mv	a4,a5
     914:	00072783          	lw	a5,0(a4)
     918:	fffe0e13          	addi	t3,t3,-1
     91c:	0c068663          	beqz	a3,9e8 <core_bench_list+0x5d8>
     920:	00e6a023          	sw	a4,0(a3)
     924:	0c0e0663          	beqz	t3,9f0 <core_bench_list+0x5e0>
     928:	00070693          	mv	a3,a4
     92c:	08078a63          	beqz	a5,9c0 <core_bench_list+0x5b0>
     930:	0007a603          	lw	a2,0(a5)
     934:	0c070863          	beqz	a4,a04 <core_bench_list+0x5f4>
     938:	00f72023          	sw	a5,0(a4)
     93c:	00078693          	mv	a3,a5
     940:	08060063          	beqz	a2,9c0 <core_bench_list+0x5b0>
     944:	00062703          	lw	a4,0(a2)
     948:	0c078263          	beqz	a5,a0c <core_bench_list+0x5fc>
     94c:	00c7a023          	sw	a2,0(a5)
     950:	00060693          	mv	a3,a2
     954:	06070663          	beqz	a4,9c0 <core_bench_list+0x5b0>
     958:	00072783          	lw	a5,0(a4)
     95c:	0a060c63          	beqz	a2,a14 <core_bench_list+0x604>
     960:	00e62023          	sw	a4,0(a2)
     964:	00070693          	mv	a3,a4
     968:	04078c63          	beqz	a5,9c0 <core_bench_list+0x5b0>
     96c:	0007a603          	lw	a2,0(a5)
     970:	0a070663          	beqz	a4,a1c <core_bench_list+0x60c>
     974:	00f72023          	sw	a5,0(a4)
     978:	00078693          	mv	a3,a5
     97c:	04060263          	beqz	a2,9c0 <core_bench_list+0x5b0>
     980:	00062583          	lw	a1,0(a2)
     984:	0a078063          	beqz	a5,a24 <core_bench_list+0x614>
     988:	00c7a023          	sw	a2,0(a5)
     98c:	00060693          	mv	a3,a2
     990:	02058863          	beqz	a1,9c0 <core_bench_list+0x5b0>
     994:	0005a783          	lw	a5,0(a1)
     998:	08060a63          	beqz	a2,a2c <core_bench_list+0x61c>
     99c:	00b62023          	sw	a1,0(a2)
     9a0:	00058693          	mv	a3,a1
     9a4:	00078e63          	beqz	a5,9c0 <core_bench_list+0x5b0>
     9a8:	0007a703          	lw	a4,0(a5)
     9ac:	ff9e0e13          	addi	t3,t3,-7
     9b0:	08058263          	beqz	a1,a34 <core_bench_list+0x624>
     9b4:	00f5a023          	sw	a5,0(a1)
     9b8:	00078693          	mv	a3,a5
     9bc:	f4071ce3          	bnez	a4,914 <core_bench_list+0x504>
     9c0:	0006a023          	sw	zero,0(a3)
     9c4:	7df2d463          	bge	t0,t6,118c <core_bench_list+0xd7c>
     9c8:	00040c93          	mv	s9,s0
     9cc:	001f1f13          	slli	t5,t5,0x1
     9d0:	c31ff06f          	j	600 <core_bench_list+0x1f0>
     9d4:	000c8413          	mv	s0,s9
     9d8:	02070263          	beqz	a4,9fc <core_bench_list+0x5ec>
     9dc:	000c8693          	mv	a3,s9
     9e0:	00070c93          	mv	s9,a4
     9e4:	c2dff06f          	j	610 <core_bench_list+0x200>
     9e8:	00070413          	mv	s0,a4
     9ec:	f20e1ee3          	bnez	t3,928 <core_bench_list+0x518>
     9f0:	00070c93          	mv	s9,a4
     9f4:	00078713          	mv	a4,a5
     9f8:	fe0712e3          	bnez	a4,9dc <core_bench_list+0x5cc>
     9fc:	000c8693          	mv	a3,s9
     a00:	fc1ff06f          	j	9c0 <core_bench_list+0x5b0>
     a04:	00078413          	mv	s0,a5
     a08:	f35ff06f          	j	93c <core_bench_list+0x52c>
     a0c:	00060413          	mv	s0,a2
     a10:	f41ff06f          	j	950 <core_bench_list+0x540>
     a14:	00070413          	mv	s0,a4
     a18:	f4dff06f          	j	964 <core_bench_list+0x554>
     a1c:	00078413          	mv	s0,a5
     a20:	f59ff06f          	j	978 <core_bench_list+0x568>
     a24:	00060413          	mv	s0,a2
     a28:	f65ff06f          	j	98c <core_bench_list+0x57c>
     a2c:	00058413          	mv	s0,a1
     a30:	f71ff06f          	j	9a0 <core_bench_list+0x590>
     a34:	00078413          	mv	s0,a5
     a38:	f81ff06f          	j	9b8 <core_bench_list+0x5a8>
     a3c:	00070413          	mv	s0,a4
     a40:	df5ff06f          	j	834 <core_bench_list+0x424>
     a44:	00c12783          	lw	a5,12(sp)
     a48:	ac07dce3          	bgez	a5,520 <core_bench_list+0x110>
     a4c:	00160613          	addi	a2,a2,1
     a50:	01061613          	slli	a2,a2,0x10
     a54:	41065613          	srai	a2,a2,0x10
     a58:	aec506e3          	beq	a0,a2,544 <core_bench_list+0x134>
     a5c:	0ff67793          	zext.b	a5,a2
     a60:	00f12c23          	sw	a5,24(sp)
     a64:	020c8463          	beqz	s9,a8c <core_bench_list+0x67c>
     a68:	000c8793          	mv	a5,s9
     a6c:	00c0006f          	j	a78 <core_bench_list+0x668>
     a70:	0007a783          	lw	a5,0(a5)
     a74:	a2078ae3          	beqz	a5,4a8 <core_bench_list+0x98>
     a78:	0047a703          	lw	a4,4(a5)
     a7c:	01812683          	lw	a3,24(sp)
     a80:	00074703          	lbu	a4,0(a4)
     a84:	fed716e3          	bne	a4,a3,a70 <core_bench_list+0x660>
     a88:	a21ff06f          	j	4a8 <core_bench_list+0x98>
     a8c:	4400106f          	j	1ecc <core_bench_list.cold+0x10>
     a90:	00070413          	mv	s0,a4
     a94:	e75ff06f          	j	908 <core_bench_list+0x4f8>
     a98:	00070413          	mv	s0,a4
     a9c:	e51ff06f          	j	8ec <core_bench_list+0x4dc>
     aa0:	00070413          	mv	s0,a4
     aa4:	e2dff06f          	j	8d0 <core_bench_list+0x4c0>
     aa8:	000ca783          	lw	a5,0(s9)
     aac:	001e0e13          	addi	t3,t3,1
     ab0:	010e1e13          	slli	t3,t3,0x10
     ab4:	0047a783          	lw	a5,4(a5)
     ab8:	010e5e13          	srli	t3,t3,0x10
     abc:	00178783          	lb	a5,1(a5)
     ac0:	0017f793          	andi	a5,a5,1
     ac4:	006787b3          	add	a5,a5,t1
     ac8:	01079313          	slli	t1,a5,0x10
     acc:	00c12783          	lw	a5,12(sp)
     ad0:	01035313          	srli	t1,t1,0x10
     ad4:	a407d6e3          	bgez	a5,520 <core_bench_list+0x110>
     ad8:	00160613          	addi	a2,a2,1
     adc:	01061613          	slli	a2,a2,0x10
     ae0:	41065613          	srai	a2,a2,0x10
     ae4:	a6c500e3          	beq	a0,a2,544 <core_bench_list+0x134>
     ae8:	0ff67793          	zext.b	a5,a2
     aec:	00f12c23          	sw	a5,24(sp)
     af0:	f79ff06f          	j	a68 <core_bench_list+0x658>
     af4:	00070413          	mv	s0,a4
     af8:	dbdff06f          	j	8b4 <core_bench_list+0x4a4>
     afc:	00070413          	mv	s0,a4
     b00:	d99ff06f          	j	898 <core_bench_list+0x488>
     b04:	00060413          	mv	s0,a2
     b08:	d79ff06f          	j	880 <core_bench_list+0x470>
     b0c:	00160613          	addi	a2,a2,1
     b10:	01061613          	slli	a2,a2,0x10
     b14:	41065613          	srai	a2,a2,0x10
     b18:	a2c506e3          	beq	a0,a2,544 <core_bench_list+0x134>
     b1c:	0ff67793          	zext.b	a5,a2
     b20:	00f12c23          	sw	a5,24(sp)
     b24:	f45ff06f          	j	a68 <core_bench_list+0x658>
     b28:	00100793          	li	a5,1
     b2c:	00f12423          	sw	a5,8(sp)
     b30:	028d8793          	addi	a5,s11,40
     b34:	00f12a23          	sw	a5,20(sp)
     b38:	1e0c8463          	beqz	s9,d20 <core_bench_list+0x910>
     b3c:	00000993          	li	s3,0
     b40:	00000d13          	li	s10,0
     b44:	00012823          	sw	zero,16(sp)
     b48:	01012683          	lw	a3,16(sp)
     b4c:	00812783          	lw	a5,8(sp)
     b50:	00000c13          	li	s8,0
     b54:	00168693          	addi	a3,a3,1
     b58:	0077f713          	andi	a4,a5,7
     b5c:	00d12823          	sw	a3,16(sp)
     b60:	000c8793          	mv	a5,s9
     b64:	08070663          	beqz	a4,bf0 <core_bench_list+0x7e0>
     b68:	00812683          	lw	a3,8(sp)
     b6c:	0edc5863          	bge	s8,a3,c5c <core_bench_list+0x84c>
     b70:	000ca783          	lw	a5,0(s9)
     b74:	00200693          	li	a3,2
     b78:	00300613          	li	a2,3
     b7c:	00400593          	li	a1,4
     b80:	00100c13          	li	s8,1
     b84:	0c078c63          	beqz	a5,c5c <core_bench_list+0x84c>
     b88:	07870463          	beq	a4,s8,bf0 <core_bench_list+0x7e0>
     b8c:	04d70c63          	beq	a4,a3,be4 <core_bench_list+0x7d4>
     b90:	04c70463          	beq	a4,a2,bd8 <core_bench_list+0x7c8>
     b94:	02b70c63          	beq	a4,a1,bcc <core_bench_list+0x7bc>
     b98:	00500613          	li	a2,5
     b9c:	02c70263          	beq	a4,a2,bc0 <core_bench_list+0x7b0>
     ba0:	00600613          	li	a2,6
     ba4:	00c70863          	beq	a4,a2,bb4 <core_bench_list+0x7a4>
     ba8:	0007a783          	lw	a5,0(a5)
     bac:	00068c13          	mv	s8,a3
     bb0:	0a078663          	beqz	a5,c5c <core_bench_list+0x84c>
     bb4:	0007a783          	lw	a5,0(a5)
     bb8:	001c0c13          	addi	s8,s8,1
     bbc:	0a078063          	beqz	a5,c5c <core_bench_list+0x84c>
     bc0:	0007a783          	lw	a5,0(a5)
     bc4:	001c0c13          	addi	s8,s8,1
     bc8:	08078a63          	beqz	a5,c5c <core_bench_list+0x84c>
     bcc:	0007a783          	lw	a5,0(a5)
     bd0:	001c0c13          	addi	s8,s8,1
     bd4:	08078463          	beqz	a5,c5c <core_bench_list+0x84c>
     bd8:	0007a783          	lw	a5,0(a5)
     bdc:	001c0c13          	addi	s8,s8,1
     be0:	06078e63          	beqz	a5,c5c <core_bench_list+0x84c>
     be4:	0007a783          	lw	a5,0(a5)
     be8:	001c0c13          	addi	s8,s8,1
     bec:	06078863          	beqz	a5,c5c <core_bench_list+0x84c>
     bf0:	00812703          	lw	a4,8(sp)
     bf4:	06ec5463          	bge	s8,a4,c5c <core_bench_list+0x84c>
     bf8:	0007a783          	lw	a5,0(a5)
     bfc:	001c0c13          	addi	s8,s8,1
     c00:	000c0713          	mv	a4,s8
     c04:	04078c63          	beqz	a5,c5c <core_bench_list+0x84c>
     c08:	0007a783          	lw	a5,0(a5)
     c0c:	001c0c13          	addi	s8,s8,1
     c10:	04078663          	beqz	a5,c5c <core_bench_list+0x84c>
     c14:	0007a783          	lw	a5,0(a5)
     c18:	00270c13          	addi	s8,a4,2
     c1c:	04078063          	beqz	a5,c5c <core_bench_list+0x84c>
     c20:	0007a783          	lw	a5,0(a5)
     c24:	00370c13          	addi	s8,a4,3
     c28:	02078a63          	beqz	a5,c5c <core_bench_list+0x84c>
     c2c:	0007a783          	lw	a5,0(a5)
     c30:	00470c13          	addi	s8,a4,4
     c34:	02078463          	beqz	a5,c5c <core_bench_list+0x84c>
     c38:	0007a783          	lw	a5,0(a5)
     c3c:	00570c13          	addi	s8,a4,5
     c40:	00078e63          	beqz	a5,c5c <core_bench_list+0x84c>
     c44:	0007a783          	lw	a5,0(a5)
     c48:	00670c13          	addi	s8,a4,6
     c4c:	00078863          	beqz	a5,c5c <core_bench_list+0x84c>
     c50:	0007a783          	lw	a5,0(a5)
     c54:	00770c13          	addi	s8,a4,7
     c58:	f8079ce3          	bnez	a5,bf0 <core_bench_list+0x7e0>
     c5c:	000d0b13          	mv	s6,s10
     c60:	00812483          	lw	s1,8(sp)
     c64:	000c8d13          	mv	s10,s9
     c68:	00078c93          	mv	s9,a5
     c6c:	03805463          	blez	s8,c94 <core_bench_list+0x884>
     c70:	06048e63          	beqz	s1,cec <core_bench_list+0x8dc>
     c74:	020c9663          	bnez	s9,ca0 <core_bench_list+0x890>
     c78:	000d0793          	mv	a5,s10
     c7c:	000d2d03          	lw	s10,0(s10)
     c80:	fffc0c13          	addi	s8,s8,-1
     c84:	040b0e63          	beqz	s6,ce0 <core_bench_list+0x8d0>
     c88:	00fb2023          	sw	a5,0(s6)
     c8c:	00078b13          	mv	s6,a5
     c90:	ff8040e3          	bgtz	s8,c70 <core_bench_list+0x860>
     c94:	4c905c63          	blez	s1,116c <core_bench_list+0xd5c>
     c98:	320c8063          	beqz	s9,fb8 <core_bench_list+0xba8>
     c9c:	140c0663          	beqz	s8,de8 <core_bench_list+0x9d8>
     ca0:	004d2a03          	lw	s4,4(s10)
     ca4:	004ca903          	lw	s2,4(s9)
     ca8:	000a1a83          	lh	s5,0(s4)
     cac:	080af793          	andi	a5,s5,128
     cb0:	06078a63          	beqz	a5,d24 <core_bench_list+0x914>
     cb4:	00091a03          	lh	s4,0(s2)
     cb8:	07fafb93          	andi	s7,s5,127
     cbc:	080a7793          	andi	a5,s4,128
     cc0:	0c078063          	beqz	a5,d80 <core_bench_list+0x970>
     cc4:	07fa7413          	andi	s0,s4,127
     cc8:	408b8433          	sub	s0,s7,s0
     ccc:	10805663          	blez	s0,dd8 <core_bench_list+0x9c8>
     cd0:	000c8793          	mv	a5,s9
     cd4:	fff48493          	addi	s1,s1,-1
     cd8:	000cac83          	lw	s9,0(s9)
     cdc:	fa0b16e3          	bnez	s6,c88 <core_bench_list+0x878>
     ce0:	00078993          	mv	s3,a5
     ce4:	00078b13          	mv	s6,a5
     ce8:	fa9ff06f          	j	c90 <core_bench_list+0x880>
     cec:	000d2783          	lw	a5,0(s10)
     cf0:	fffc0c13          	addi	s8,s8,-1
     cf4:	020b0063          	beqz	s6,d14 <core_bench_list+0x904>
     cf8:	01ab2023          	sw	s10,0(s6)
     cfc:	2a0c0a63          	beqz	s8,fb0 <core_bench_list+0xba0>
     d00:	000d0b13          	mv	s6,s10
     d04:	00078d13          	mv	s10,a5
     d08:	000d2783          	lw	a5,0(s10)
     d0c:	fffc0c13          	addi	s8,s8,-1
     d10:	fe0b14e3          	bnez	s6,cf8 <core_bench_list+0x8e8>
     d14:	280c0c63          	beqz	s8,fac <core_bench_list+0xb9c>
     d18:	000d0993          	mv	s3,s10
     d1c:	fe5ff06f          	j	d00 <core_bench_list+0x8f0>
     d20:	1a40106f          	j	1ec4 <core_bench_list.cold+0x8>
     d24:	403ad593          	srai	a1,s5,0x3
     d28:	00f5f593          	andi	a1,a1,15
     d2c:	00459693          	slli	a3,a1,0x4
     d30:	007af713          	andi	a4,s5,7
     d34:	038dd783          	lhu	a5,56(s11)
     d38:	00d585b3          	add	a1,a1,a3
     d3c:	2c070263          	beqz	a4,1000 <core_bench_list+0xbf0>
     d40:	00100693          	li	a3,1
     d44:	28d70c63          	beq	a4,a3,fdc <core_bench_list+0xbcc>
     d48:	010a9513          	slli	a0,s5,0x10
     d4c:	000a8b93          	mv	s7,s5
     d50:	01055513          	srli	a0,a0,0x10
     d54:	00078593          	mv	a1,a5
     d58:	199070ef          	jal	86f0 <crcu16>
     d5c:	07fbfb93          	andi	s7,s7,127
     d60:	f00afe93          	andi	t4,s5,-256
     d64:	01dbeeb3          	or	t4,s7,t4
     d68:	02ad9c23          	sh	a0,56(s11)
     d6c:	080eee93          	ori	t4,t4,128
     d70:	01da1023          	sh	t4,0(s4)
     d74:	00091a03          	lh	s4,0(s2)
     d78:	080a7793          	andi	a5,s4,128
     d7c:	f40794e3          	bnez	a5,cc4 <core_bench_list+0x8b4>
     d80:	403a5593          	srai	a1,s4,0x3
     d84:	00f5f593          	andi	a1,a1,15
     d88:	00459693          	slli	a3,a1,0x4
     d8c:	007a7713          	andi	a4,s4,7
     d90:	038dd783          	lhu	a5,56(s11)
     d94:	00d585b3          	add	a1,a1,a3
     d98:	2c070663          	beqz	a4,1064 <core_bench_list+0xc54>
     d9c:	00100693          	li	a3,1
     da0:	2ad70063          	beq	a4,a3,1040 <core_bench_list+0xc30>
     da4:	010a1513          	slli	a0,s4,0x10
     da8:	000a0413          	mv	s0,s4
     dac:	01055513          	srli	a0,a0,0x10
     db0:	00078593          	mv	a1,a5
     db4:	13d070ef          	jal	86f0 <crcu16>
     db8:	07f47413          	andi	s0,s0,127
     dbc:	f00a7e93          	andi	t4,s4,-256
     dc0:	01d46eb3          	or	t4,s0,t4
     dc4:	02ad9c23          	sh	a0,56(s11)
     dc8:	080eee93          	ori	t4,t4,128
     dcc:	01d91023          	sh	t4,0(s2)
     dd0:	408b8433          	sub	s0,s7,s0
     dd4:	ee804ee3          	bgtz	s0,cd0 <core_bench_list+0x8c0>
     dd8:	000d0793          	mv	a5,s10
     ddc:	fffc0c13          	addi	s8,s8,-1
     de0:	000d2d03          	lw	s10,0(s10)
     de4:	ea1ff06f          	j	c84 <core_bench_list+0x874>
     de8:	fff48693          	addi	a3,s1,-1
     dec:	0076f793          	andi	a5,a3,7
     df0:	0e078c63          	beqz	a5,ee8 <core_bench_list+0xad8>
     df4:	000ca703          	lw	a4,0(s9)
     df8:	00068493          	mv	s1,a3
     dfc:	300b0863          	beqz	s6,110c <core_bench_list+0xcfc>
     e00:	019b2023          	sw	s9,0(s6)
     e04:	00100693          	li	a3,1
     e08:	00200613          	li	a2,2
     e0c:	00300513          	li	a0,3
     e10:	00400593          	li	a1,4
     e14:	000c8b13          	mv	s6,s9
     e18:	1a070063          	beqz	a4,fb8 <core_bench_list+0xba8>
     e1c:	00070c93          	mv	s9,a4
     e20:	0cd78463          	beq	a5,a3,ee8 <core_bench_list+0xad8>
     e24:	0ac78463          	beq	a5,a2,ecc <core_bench_list+0xabc>
     e28:	08a78463          	beq	a5,a0,eb0 <core_bench_list+0xaa0>
     e2c:	06b78463          	beq	a5,a1,e94 <core_bench_list+0xa84>
     e30:	00500693          	li	a3,5
     e34:	04d78263          	beq	a5,a3,e78 <core_bench_list+0xa68>
     e38:	00600693          	li	a3,6
     e3c:	02d78063          	beq	a5,a3,e5c <core_bench_list+0xa4c>
     e40:	00072803          	lw	a6,0(a4)
     e44:	fff48493          	addi	s1,s1,-1
     e48:	300b0263          	beqz	s6,114c <core_bench_list+0xd3c>
     e4c:	00eb2023          	sw	a4,0(s6)
     e50:	00070b13          	mv	s6,a4
     e54:	16080263          	beqz	a6,fb8 <core_bench_list+0xba8>
     e58:	00080c93          	mv	s9,a6
     e5c:	000ca783          	lw	a5,0(s9)
     e60:	fff48493          	addi	s1,s1,-1
     e64:	2c0b0863          	beqz	s6,1134 <core_bench_list+0xd24>
     e68:	019b2023          	sw	s9,0(s6)
     e6c:	000c8b13          	mv	s6,s9
     e70:	14078463          	beqz	a5,fb8 <core_bench_list+0xba8>
     e74:	00078c93          	mv	s9,a5
     e78:	000ca783          	lw	a5,0(s9)
     e7c:	fff48493          	addi	s1,s1,-1
     e80:	2a0b0663          	beqz	s6,112c <core_bench_list+0xd1c>
     e84:	019b2023          	sw	s9,0(s6)
     e88:	000c8b13          	mv	s6,s9
     e8c:	12078663          	beqz	a5,fb8 <core_bench_list+0xba8>
     e90:	00078c93          	mv	s9,a5
     e94:	000ca783          	lw	a5,0(s9)
     e98:	fff48493          	addi	s1,s1,-1
     e9c:	280b0463          	beqz	s6,1124 <core_bench_list+0xd14>
     ea0:	019b2023          	sw	s9,0(s6)
     ea4:	000c8b13          	mv	s6,s9
     ea8:	10078863          	beqz	a5,fb8 <core_bench_list+0xba8>
     eac:	00078c93          	mv	s9,a5
     eb0:	000ca783          	lw	a5,0(s9)
     eb4:	fff48493          	addi	s1,s1,-1
     eb8:	260b0263          	beqz	s6,111c <core_bench_list+0xd0c>
     ebc:	019b2023          	sw	s9,0(s6)
     ec0:	000c8b13          	mv	s6,s9
     ec4:	0e078a63          	beqz	a5,fb8 <core_bench_list+0xba8>
     ec8:	00078c93          	mv	s9,a5
     ecc:	000ca783          	lw	a5,0(s9)
     ed0:	fff48493          	addi	s1,s1,-1
     ed4:	240b0063          	beqz	s6,1114 <core_bench_list+0xd04>
     ed8:	019b2023          	sw	s9,0(s6)
     edc:	000c8b13          	mv	s6,s9
     ee0:	0c078c63          	beqz	a5,fb8 <core_bench_list+0xba8>
     ee4:	00078c93          	mv	s9,a5
     ee8:	000ca783          	lw	a5,0(s9)
     eec:	fff48493          	addi	s1,s1,-1
     ef0:	0a0b0a63          	beqz	s6,fa4 <core_bench_list+0xb94>
     ef4:	019b2023          	sw	s9,0(s6)
     ef8:	24048263          	beqz	s1,113c <core_bench_list+0xd2c>
     efc:	000c8b13          	mv	s6,s9
     f00:	0a078c63          	beqz	a5,fb8 <core_bench_list+0xba8>
     f04:	0007a703          	lw	a4,0(a5)
     f08:	1c0c8663          	beqz	s9,10d4 <core_bench_list+0xcc4>
     f0c:	00fca023          	sw	a5,0(s9)
     f10:	00078b13          	mv	s6,a5
     f14:	0a070263          	beqz	a4,fb8 <core_bench_list+0xba8>
     f18:	00072683          	lw	a3,0(a4)
     f1c:	1c078063          	beqz	a5,10dc <core_bench_list+0xccc>
     f20:	00e7a023          	sw	a4,0(a5)
     f24:	00070b13          	mv	s6,a4
     f28:	08068863          	beqz	a3,fb8 <core_bench_list+0xba8>
     f2c:	0006a783          	lw	a5,0(a3)
     f30:	1a070a63          	beqz	a4,10e4 <core_bench_list+0xcd4>
     f34:	00d72023          	sw	a3,0(a4)
     f38:	00068b13          	mv	s6,a3
     f3c:	06078e63          	beqz	a5,fb8 <core_bench_list+0xba8>
     f40:	0007a703          	lw	a4,0(a5)
     f44:	1a068463          	beqz	a3,10ec <core_bench_list+0xcdc>
     f48:	00f6a023          	sw	a5,0(a3)
     f4c:	00078b13          	mv	s6,a5
     f50:	06070463          	beqz	a4,fb8 <core_bench_list+0xba8>
     f54:	00072683          	lw	a3,0(a4)
     f58:	18078e63          	beqz	a5,10f4 <core_bench_list+0xce4>
     f5c:	00e7a023          	sw	a4,0(a5)
     f60:	00070b13          	mv	s6,a4
     f64:	04068a63          	beqz	a3,fb8 <core_bench_list+0xba8>
     f68:	0006a783          	lw	a5,0(a3)
     f6c:	18070c63          	beqz	a4,1104 <core_bench_list+0xcf4>
     f70:	00d72023          	sw	a3,0(a4)
     f74:	00068b13          	mv	s6,a3
     f78:	04078063          	beqz	a5,fb8 <core_bench_list+0xba8>
     f7c:	0007a803          	lw	a6,0(a5)
     f80:	ff948493          	addi	s1,s1,-7
     f84:	16068c63          	beqz	a3,10fc <core_bench_list+0xcec>
     f88:	00f6a023          	sw	a5,0(a3)
     f8c:	00078b13          	mv	s6,a5
     f90:	02080463          	beqz	a6,fb8 <core_bench_list+0xba8>
     f94:	00080c93          	mv	s9,a6
     f98:	000ca783          	lw	a5,0(s9)
     f9c:	fff48493          	addi	s1,s1,-1
     fa0:	f40b1ae3          	bnez	s6,ef4 <core_bench_list+0xae4>
     fa4:	000c8993          	mv	s3,s9
     fa8:	f51ff06f          	j	ef8 <core_bench_list+0xae8>
     fac:	000d0993          	mv	s3,s10
     fb0:	b80c9ce3          	bnez	s9,b48 <core_bench_list+0x738>
     fb4:	000d0b13          	mv	s6,s10
     fb8:	01012783          	lw	a5,16(sp)
     fbc:	000b2023          	sw	zero,0(s6)
     fc0:	00100713          	li	a4,1
     fc4:	1cf75063          	bge	a4,a5,1184 <core_bench_list+0xd74>
     fc8:	00812783          	lw	a5,8(sp)
     fcc:	00098c93          	mv	s9,s3
     fd0:	00179793          	slli	a5,a5,0x1
     fd4:	00f12423          	sw	a5,8(sp)
     fd8:	b61ff06f          	j	b38 <core_bench_list+0x728>
     fdc:	01412503          	lw	a0,20(sp)
     fe0:	00078613          	mv	a2,a5
     fe4:	40d010ef          	jal	2bf0 <core_bench_matrix>
     fe8:	03cdd783          	lhu	a5,60(s11)
     fec:	01051b93          	slli	s7,a0,0x10
     ff0:	410bdb93          	srai	s7,s7,0x10
     ff4:	0a078863          	beqz	a5,10a4 <core_bench_list+0xc94>
     ff8:	038dd783          	lhu	a5,56(s11)
     ffc:	d59ff06f          	j	d54 <core_bench_list+0x944>
    1000:	02200693          	li	a3,34
    1004:	00058713          	mv	a4,a1
    1008:	00d5d463          	bge	a1,a3,1010 <core_bench_list+0xc00>
    100c:	02200713          	li	a4,34
    1010:	002d9683          	lh	a3,2(s11)
    1014:	000d9603          	lh	a2,0(s11)
    1018:	014da583          	lw	a1,20(s11)
    101c:	018da503          	lw	a0,24(s11)
    1020:	1ff77713          	andi	a4,a4,511
    1024:	43c060ef          	jal	7460 <core_bench_state>
    1028:	03edd783          	lhu	a5,62(s11)
    102c:	01051b93          	slli	s7,a0,0x10
    1030:	410bdb93          	srai	s7,s7,0x10
    1034:	08078463          	beqz	a5,10bc <core_bench_list+0xcac>
    1038:	038dd783          	lhu	a5,56(s11)
    103c:	d19ff06f          	j	d54 <core_bench_list+0x944>
    1040:	01412503          	lw	a0,20(sp)
    1044:	00078613          	mv	a2,a5
    1048:	3a9010ef          	jal	2bf0 <core_bench_matrix>
    104c:	03cdd783          	lhu	a5,60(s11)
    1050:	01051413          	slli	s0,a0,0x10
    1054:	41045413          	srai	s0,s0,0x10
    1058:	06078863          	beqz	a5,10c8 <core_bench_list+0xcb8>
    105c:	038dd783          	lhu	a5,56(s11)
    1060:	d51ff06f          	j	db0 <core_bench_list+0x9a0>
    1064:	02200693          	li	a3,34
    1068:	00058713          	mv	a4,a1
    106c:	00d5d463          	bge	a1,a3,1074 <core_bench_list+0xc64>
    1070:	02200713          	li	a4,34
    1074:	002d9683          	lh	a3,2(s11)
    1078:	000d9603          	lh	a2,0(s11)
    107c:	014da583          	lw	a1,20(s11)
    1080:	018da503          	lw	a0,24(s11)
    1084:	1ff77713          	andi	a4,a4,511
    1088:	3d8060ef          	jal	7460 <core_bench_state>
    108c:	03edd783          	lhu	a5,62(s11)
    1090:	01051413          	slli	s0,a0,0x10
    1094:	41045413          	srai	s0,s0,0x10
    1098:	00078c63          	beqz	a5,10b0 <core_bench_list+0xca0>
    109c:	038dd783          	lhu	a5,56(s11)
    10a0:	d11ff06f          	j	db0 <core_bench_list+0x9a0>
    10a4:	038dd783          	lhu	a5,56(s11)
    10a8:	02ad9e23          	sh	a0,60(s11)
    10ac:	ca9ff06f          	j	d54 <core_bench_list+0x944>
    10b0:	038dd783          	lhu	a5,56(s11)
    10b4:	02ad9f23          	sh	a0,62(s11)
    10b8:	cf9ff06f          	j	db0 <core_bench_list+0x9a0>
    10bc:	038dd783          	lhu	a5,56(s11)
    10c0:	02ad9f23          	sh	a0,62(s11)
    10c4:	c91ff06f          	j	d54 <core_bench_list+0x944>
    10c8:	038dd783          	lhu	a5,56(s11)
    10cc:	02ad9e23          	sh	a0,60(s11)
    10d0:	ce1ff06f          	j	db0 <core_bench_list+0x9a0>
    10d4:	00078993          	mv	s3,a5
    10d8:	e39ff06f          	j	f10 <core_bench_list+0xb00>
    10dc:	00070993          	mv	s3,a4
    10e0:	e45ff06f          	j	f24 <core_bench_list+0xb14>
    10e4:	00068993          	mv	s3,a3
    10e8:	e51ff06f          	j	f38 <core_bench_list+0xb28>
    10ec:	00078993          	mv	s3,a5
    10f0:	e5dff06f          	j	f4c <core_bench_list+0xb3c>
    10f4:	00070993          	mv	s3,a4
    10f8:	e69ff06f          	j	f60 <core_bench_list+0xb50>
    10fc:	00078993          	mv	s3,a5
    1100:	e8dff06f          	j	f8c <core_bench_list+0xb7c>
    1104:	00068993          	mv	s3,a3
    1108:	e6dff06f          	j	f74 <core_bench_list+0xb64>
    110c:	000c8993          	mv	s3,s9
    1110:	cf5ff06f          	j	e04 <core_bench_list+0x9f4>
    1114:	000c8993          	mv	s3,s9
    1118:	dc5ff06f          	j	edc <core_bench_list+0xacc>
    111c:	000c8993          	mv	s3,s9
    1120:	da1ff06f          	j	ec0 <core_bench_list+0xab0>
    1124:	000c8993          	mv	s3,s9
    1128:	d7dff06f          	j	ea4 <core_bench_list+0xa94>
    112c:	000c8993          	mv	s3,s9
    1130:	d59ff06f          	j	e88 <core_bench_list+0xa78>
    1134:	000c8993          	mv	s3,s9
    1138:	d35ff06f          	j	e6c <core_bench_list+0xa5c>
    113c:	000c8d13          	mv	s10,s9
    1140:	00078c93          	mv	s9,a5
    1144:	a00c92e3          	bnez	s9,b48 <core_bench_list+0x738>
    1148:	e6dff06f          	j	fb4 <core_bench_list+0xba4>
    114c:	00070993          	mv	s3,a4
    1150:	d01ff06f          	j	e50 <core_bench_list+0xa40>
    1154:	00068c93          	mv	s9,a3
    1158:	881ff06f          	j	9d8 <core_bench_list+0x5c8>
    115c:	000ca403          	lw	s0,0(s9)
    1160:	00000793          	li	a5,0
    1164:	c4041c63          	bnez	s0,5bc <core_bench_list+0x1ac>
    1168:	c78ff06f          	j	5e0 <core_bench_list+0x1d0>
    116c:	000b0d13          	mv	s10,s6
    1170:	9c0c9ce3          	bnez	s9,b48 <core_bench_list+0x738>
    1174:	e41ff06f          	j	fb4 <core_bench_list+0xba4>
    1178:	00b12623          	sw	a1,12(sp)
    117c:	00012e23          	sw	zero,28(sp)
    1180:	bdcff06f          	j	55c <core_bench_list+0x14c>
    1184:	00098c93          	mv	s9,s3
    1188:	bd8ff06f          	j	560 <core_bench_list+0x150>
    118c:	00042483          	lw	s1,0(s0)
    1190:	02048063          	beqz	s1,11b0 <core_bench_list+0xda0>
    1194:	00442783          	lw	a5,4(s0)
    1198:	01c12583          	lw	a1,28(sp)
    119c:	00079503          	lh	a0,0(a5)
    11a0:	441070ef          	jal	8de0 <crc16>
    11a4:	0004a483          	lw	s1,0(s1)
    11a8:	00a12e23          	sw	a0,28(sp)
    11ac:	fe0494e3          	bnez	s1,1194 <core_bench_list+0xd84>
    11b0:	05c12083          	lw	ra,92(sp)
    11b4:	05812403          	lw	s0,88(sp)
    11b8:	01c12503          	lw	a0,28(sp)
    11bc:	05412483          	lw	s1,84(sp)
    11c0:	05012903          	lw	s2,80(sp)
    11c4:	04c12983          	lw	s3,76(sp)
    11c8:	04812a03          	lw	s4,72(sp)
    11cc:	04412a83          	lw	s5,68(sp)
    11d0:	04012b03          	lw	s6,64(sp)
    11d4:	03c12b83          	lw	s7,60(sp)
    11d8:	03812c03          	lw	s8,56(sp)
    11dc:	03412c83          	lw	s9,52(sp)
    11e0:	03012d03          	lw	s10,48(sp)
    11e4:	02c12d83          	lw	s11,44(sp)
    11e8:	06010113          	addi	sp,sp,96
    11ec:	00008067          	ret

000011f0 <core_list_init>:
    11f0:	ccccd737          	lui	a4,0xccccd
    11f4:	ccd70713          	addi	a4,a4,-819 # cccccccd <_stack+0xcccacfbd>
    11f8:	02e537b3          	mulhu	a5,a0,a4
    11fc:	00058693          	mv	a3,a1
    1200:	ffff85b7          	lui	a1,0xffff8
    1204:	0006a023          	sw	zero,0(a3)
    1208:	08058593          	addi	a1,a1,128 # ffff8080 <_stack+0xfffd8370>
    120c:	01068713          	addi	a4,a3,16
    1210:	00060313          	mv	t1,a2
    1214:	ffff8837          	lui	a6,0xffff8
    1218:	00868613          	addi	a2,a3,8
    121c:	0047d793          	srli	a5,a5,0x4
    1220:	ffe78513          	addi	a0,a5,-2
    1224:	00351893          	slli	a7,a0,0x3
    1228:	011688b3          	add	a7,a3,a7
    122c:	0116a223          	sw	a7,4(a3)
    1230:	00251e93          	slli	t4,a0,0x2
    1234:	00089123          	sh	zero,2(a7)
    1238:	00b89023          	sh	a1,0(a7)
    123c:	01d88eb3          	add	t4,a7,t4
    1240:	00488793          	addi	a5,a7,4
    1244:	67177463          	bgeu	a4,a7,18ac <core_list_init+0x6bc>
    1248:	00888593          	addi	a1,a7,8
    124c:	65d5f863          	bgeu	a1,t4,189c <core_list_init+0x6ac>
    1250:	00f6a623          	sw	a5,12(a3)
    1254:	0006a423          	sw	zero,8(a3)
    1258:	00c6a023          	sw	a2,0(a3)
    125c:	fff00e13          	li	t3,-1
    1260:	fff84793          	not	a5,a6
    1264:	01c89223          	sh	t3,4(a7)
    1268:	00f89323          	sh	a5,6(a7)
    126c:	0e050263          	beqz	a0,1350 <core_list_init+0x160>
    1270:	01031f13          	slli	t5,t1,0x10
    1274:	ffff8fb7          	lui	t6,0xffff8
    1278:	00157793          	andi	a5,a0,1
    127c:	010f5f13          	srli	t5,t5,0x10
    1280:	00000813          	li	a6,0
    1284:	ffffcf93          	not	t6,t6
    1288:	5a079c63          	bnez	a5,1840 <core_list_init+0x650>
    128c:	01081e13          	slli	t3,a6,0x10
    1290:	010e5e13          	srli	t3,t3,0x10
    1294:	01ee47b3          	xor	a5,t3,t5
    1298:	00379793          	slli	a5,a5,0x3
    129c:	007e7e13          	andi	t3,t3,7
    12a0:	0787f793          	andi	a5,a5,120
    12a4:	01c7e7b3          	or	a5,a5,t3
    12a8:	00879e13          	slli	t3,a5,0x8
    12ac:	01c787b3          	add	a5,a5,t3
    12b0:	01079793          	slli	a5,a5,0x10
    12b4:	00870293          	addi	t0,a4,8
    12b8:	4107d793          	srai	a5,a5,0x10
    12bc:	0312f663          	bgeu	t0,a7,12e8 <core_list_init+0xf8>
    12c0:	00458e13          	addi	t3,a1,4
    12c4:	03de7263          	bgeu	t3,t4,12e8 <core_list_init+0xf8>
    12c8:	00c72023          	sw	a2,0(a4)
    12cc:	00e6a023          	sw	a4,0(a3)
    12d0:	00b72223          	sw	a1,4(a4)
    12d4:	00070613          	mv	a2,a4
    12d8:	00f59023          	sh	a5,0(a1)
    12dc:	01f59123          	sh	t6,2(a1)
    12e0:	00028713          	mv	a4,t0
    12e4:	000e0593          	mv	a1,t3
    12e8:	00180813          	addi	a6,a6,1 # ffff8001 <_stack+0xfffd82f1>
    12ec:	01081e13          	slli	t3,a6,0x10
    12f0:	010e5e13          	srli	t3,t3,0x10
    12f4:	01ee47b3          	xor	a5,t3,t5
    12f8:	00379793          	slli	a5,a5,0x3
    12fc:	007e7e13          	andi	t3,t3,7
    1300:	0787f793          	andi	a5,a5,120
    1304:	01c7e7b3          	or	a5,a5,t3
    1308:	00879e13          	slli	t3,a5,0x8
    130c:	01c787b3          	add	a5,a5,t3
    1310:	01079793          	slli	a5,a5,0x10
    1314:	00870293          	addi	t0,a4,8
    1318:	4107d793          	srai	a5,a5,0x10
    131c:	0312f663          	bgeu	t0,a7,1348 <core_list_init+0x158>
    1320:	00458e13          	addi	t3,a1,4
    1324:	03de7263          	bgeu	t3,t4,1348 <core_list_init+0x158>
    1328:	00c72023          	sw	a2,0(a4)
    132c:	00e6a023          	sw	a4,0(a3)
    1330:	00b72223          	sw	a1,4(a4)
    1334:	00f59023          	sh	a5,0(a1)
    1338:	01f59123          	sh	t6,2(a1)
    133c:	00070613          	mv	a2,a4
    1340:	000e0593          	mv	a1,t3
    1344:	00028713          	mv	a4,t0
    1348:	00180813          	addi	a6,a6,1
    134c:	f50510e3          	bne	a0,a6,128c <core_list_init+0x9c>
    1350:	00062583          	lw	a1,0(a2)
    1354:	08058263          	beqz	a1,13d8 <core_list_init+0x1e8>
    1358:	ccccd837          	lui	a6,0xccccd
    135c:	ccd80813          	addi	a6,a6,-819 # cccccccd <_stack+0xcccacfbd>
    1360:	03053833          	mulhu	a6,a0,a6
    1364:	000048b7          	lui	a7,0x4
    1368:	20000793          	li	a5,512
    136c:	00100713          	li	a4,1
    1370:	fff88893          	addi	a7,a7,-1 # 3fff <core_bench_matrix+0x140f>
    1374:	00285813          	srli	a6,a6,0x2
    1378:	0280006f          	j	13a0 <core_list_init+0x1b0>
    137c:	00e51123          	sh	a4,2(a0)
    1380:	0005a503          	lw	a0,0(a1)
    1384:	10078793          	addi	a5,a5,256
    1388:	01079793          	slli	a5,a5,0x10
    138c:	0107d793          	srli	a5,a5,0x10
    1390:	00170713          	addi	a4,a4,1
    1394:	00058613          	mv	a2,a1
    1398:	04050063          	beqz	a0,13d8 <core_list_init+0x1e8>
    139c:	00050593          	mv	a1,a0
    13a0:	00462503          	lw	a0,4(a2)
    13a4:	fd076ce3          	bltu	a4,a6,137c <core_list_init+0x18c>
    13a8:	7007f613          	andi	a2,a5,1792
    13ac:	00e34e33          	xor	t3,t1,a4
    13b0:	01c66633          	or	a2,a2,t3
    13b4:	01167633          	and	a2,a2,a7
    13b8:	00c51123          	sh	a2,2(a0)
    13bc:	0005a503          	lw	a0,0(a1)
    13c0:	10078793          	addi	a5,a5,256
    13c4:	01079793          	slli	a5,a5,0x10
    13c8:	0107d793          	srli	a5,a5,0x10
    13cc:	00170713          	addi	a4,a4,1
    13d0:	00058613          	mv	a2,a1
    13d4:	fc0514e3          	bnez	a0,139c <core_list_init+0x1ac>
    13d8:	00100f93          	li	t6,1
    13dc:	000f8393          	mv	t2,t6
    13e0:	3a068a63          	beqz	a3,1794 <core_list_init+0x5a4>
    13e4:	00000513          	li	a0,0
    13e8:	00000613          	li	a2,0
    13ec:	00000293          	li	t0,0
    13f0:	007ff593          	andi	a1,t6,7
    13f4:	00068713          	mv	a4,a3
    13f8:	00000793          	li	a5,0
    13fc:	00128293          	addi	t0,t0,1
    1400:	08058463          	beqz	a1,1488 <core_list_init+0x298>
    1404:	0ff7d663          	bge	a5,t6,14f0 <core_list_init+0x300>
    1408:	0006a703          	lw	a4,0(a3)
    140c:	00100793          	li	a5,1
    1410:	0e070063          	beqz	a4,14f0 <core_list_init+0x300>
    1414:	06f58a63          	beq	a1,a5,1488 <core_list_init+0x298>
    1418:	00200813          	li	a6,2
    141c:	07058063          	beq	a1,a6,147c <core_list_init+0x28c>
    1420:	00300893          	li	a7,3
    1424:	05158663          	beq	a1,a7,1470 <core_list_init+0x280>
    1428:	00400893          	li	a7,4
    142c:	03158c63          	beq	a1,a7,1464 <core_list_init+0x274>
    1430:	00500893          	li	a7,5
    1434:	03158263          	beq	a1,a7,1458 <core_list_init+0x268>
    1438:	00600893          	li	a7,6
    143c:	01158863          	beq	a1,a7,144c <core_list_init+0x25c>
    1440:	00072703          	lw	a4,0(a4)
    1444:	00080793          	mv	a5,a6
    1448:	0a070463          	beqz	a4,14f0 <core_list_init+0x300>
    144c:	00072703          	lw	a4,0(a4)
    1450:	00178793          	addi	a5,a5,1
    1454:	08070e63          	beqz	a4,14f0 <core_list_init+0x300>
    1458:	00072703          	lw	a4,0(a4)
    145c:	00178793          	addi	a5,a5,1
    1460:	08070863          	beqz	a4,14f0 <core_list_init+0x300>
    1464:	00072703          	lw	a4,0(a4)
    1468:	00178793          	addi	a5,a5,1
    146c:	08070263          	beqz	a4,14f0 <core_list_init+0x300>
    1470:	00072703          	lw	a4,0(a4)
    1474:	00178793          	addi	a5,a5,1
    1478:	06070c63          	beqz	a4,14f0 <core_list_init+0x300>
    147c:	00072703          	lw	a4,0(a4)
    1480:	00178793          	addi	a5,a5,1
    1484:	06070663          	beqz	a4,14f0 <core_list_init+0x300>
    1488:	07f7d463          	bge	a5,t6,14f0 <core_list_init+0x300>
    148c:	00072703          	lw	a4,0(a4)
    1490:	00178793          	addi	a5,a5,1
    1494:	00078593          	mv	a1,a5
    1498:	04070c63          	beqz	a4,14f0 <core_list_init+0x300>
    149c:	00072703          	lw	a4,0(a4)
    14a0:	00178793          	addi	a5,a5,1
    14a4:	04070663          	beqz	a4,14f0 <core_list_init+0x300>
    14a8:	00072703          	lw	a4,0(a4)
    14ac:	00258793          	addi	a5,a1,2
    14b0:	04070063          	beqz	a4,14f0 <core_list_init+0x300>
    14b4:	00072703          	lw	a4,0(a4)
    14b8:	00358793          	addi	a5,a1,3
    14bc:	02070a63          	beqz	a4,14f0 <core_list_init+0x300>
    14c0:	00072703          	lw	a4,0(a4)
    14c4:	00458793          	addi	a5,a1,4
    14c8:	02070463          	beqz	a4,14f0 <core_list_init+0x300>
    14cc:	00072703          	lw	a4,0(a4)
    14d0:	00558793          	addi	a5,a1,5
    14d4:	00070e63          	beqz	a4,14f0 <core_list_init+0x300>
    14d8:	00072703          	lw	a4,0(a4)
    14dc:	00658793          	addi	a5,a1,6
    14e0:	00070863          	beqz	a4,14f0 <core_list_init+0x300>
    14e4:	00072703          	lw	a4,0(a4)
    14e8:	00758793          	addi	a5,a1,7
    14ec:	f8071ee3          	bnez	a4,1488 <core_list_init+0x298>
    14f0:	000f8e93          	mv	t4,t6
    14f4:	02f05463          	blez	a5,151c <core_list_init+0x32c>
    14f8:	080e8e63          	beqz	t4,1594 <core_list_init+0x3a4>
    14fc:	02071663          	bnez	a4,1528 <core_list_init+0x338>
    1500:	00068593          	mv	a1,a3
    1504:	0006a683          	lw	a3,0(a3)
    1508:	fff78793          	addi	a5,a5,-1
    150c:	06060e63          	beqz	a2,1588 <core_list_init+0x398>
    1510:	00b62023          	sw	a1,0(a2)
    1514:	00058613          	mv	a2,a1
    1518:	fef040e3          	bgtz	a5,14f8 <core_list_init+0x308>
    151c:	37d05c63          	blez	t4,1894 <core_list_init+0x6a4>
    1520:	26070063          	beqz	a4,1780 <core_list_init+0x590>
    1524:	0a078a63          	beqz	a5,15d8 <core_list_init+0x3e8>
    1528:	0046a303          	lw	t1,4(a3)
    152c:	00472883          	lw	a7,4(a4)
    1530:	00031583          	lh	a1,0(t1)
    1534:	00289f03          	lh	t5,2(a7)
    1538:	00231803          	lh	a6,2(t1)
    153c:	01059e13          	slli	t3,a1,0x10
    1540:	010e5e13          	srli	t3,t3,0x10
    1544:	f005f593          	andi	a1,a1,-256
    1548:	008e5e13          	srli	t3,t3,0x8
    154c:	01c5e5b3          	or	a1,a1,t3
    1550:	00b31023          	sh	a1,0(t1)
    1554:	00089583          	lh	a1,0(a7)
    1558:	41e80833          	sub	a6,a6,t5
    155c:	01059313          	slli	t1,a1,0x10
    1560:	01035313          	srli	t1,t1,0x10
    1564:	f005f593          	andi	a1,a1,-256
    1568:	00835313          	srli	t1,t1,0x8
    156c:	0065e5b3          	or	a1,a1,t1
    1570:	00b89023          	sh	a1,0(a7)
    1574:	05005a63          	blez	a6,15c8 <core_list_init+0x3d8>
    1578:	00070593          	mv	a1,a4
    157c:	fffe8e93          	addi	t4,t4,-1
    1580:	00072703          	lw	a4,0(a4)
    1584:	f80616e3          	bnez	a2,1510 <core_list_init+0x320>
    1588:	00058513          	mv	a0,a1
    158c:	00058613          	mv	a2,a1
    1590:	f89ff06f          	j	1518 <core_list_init+0x328>
    1594:	0006a583          	lw	a1,0(a3)
    1598:	fff78793          	addi	a5,a5,-1
    159c:	02060063          	beqz	a2,15bc <core_list_init+0x3cc>
    15a0:	00d62023          	sw	a3,0(a2)
    15a4:	1e078e63          	beqz	a5,17a0 <core_list_init+0x5b0>
    15a8:	00068613          	mv	a2,a3
    15ac:	00058693          	mv	a3,a1
    15b0:	0006a583          	lw	a1,0(a3)
    15b4:	fff78793          	addi	a5,a5,-1
    15b8:	fe0614e3          	bnez	a2,15a0 <core_list_init+0x3b0>
    15bc:	1e078063          	beqz	a5,179c <core_list_init+0x5ac>
    15c0:	00068513          	mv	a0,a3
    15c4:	fe5ff06f          	j	15a8 <core_list_init+0x3b8>
    15c8:	00068593          	mv	a1,a3
    15cc:	fff78793          	addi	a5,a5,-1
    15d0:	0006a683          	lw	a3,0(a3)
    15d4:	f39ff06f          	j	150c <core_list_init+0x31c>
    15d8:	fffe8593          	addi	a1,t4,-1
    15dc:	0075f793          	andi	a5,a1,7
    15e0:	0e078a63          	beqz	a5,16d4 <core_list_init+0x4e4>
    15e4:	00072683          	lw	a3,0(a4)
    15e8:	00058e93          	mv	t4,a1
    15ec:	20060c63          	beqz	a2,1804 <core_list_init+0x614>
    15f0:	00e62023          	sw	a4,0(a2)
    15f4:	00070613          	mv	a2,a4
    15f8:	18068463          	beqz	a3,1780 <core_list_init+0x590>
    15fc:	00100593          	li	a1,1
    1600:	00068713          	mv	a4,a3
    1604:	0cb78863          	beq	a5,a1,16d4 <core_list_init+0x4e4>
    1608:	00200593          	li	a1,2
    160c:	0ab78663          	beq	a5,a1,16b8 <core_list_init+0x4c8>
    1610:	00300593          	li	a1,3
    1614:	08b78463          	beq	a5,a1,169c <core_list_init+0x4ac>
    1618:	00400593          	li	a1,4
    161c:	06b78263          	beq	a5,a1,1680 <core_list_init+0x490>
    1620:	00500593          	li	a1,5
    1624:	04b78063          	beq	a5,a1,1664 <core_list_init+0x474>
    1628:	00600593          	li	a1,6
    162c:	00b78e63          	beq	a5,a1,1648 <core_list_init+0x458>
    1630:	0006a703          	lw	a4,0(a3)
    1634:	fffe8e93          	addi	t4,t4,-1
    1638:	20060063          	beqz	a2,1838 <core_list_init+0x648>
    163c:	00d62023          	sw	a3,0(a2)
    1640:	00068613          	mv	a2,a3
    1644:	12070e63          	beqz	a4,1780 <core_list_init+0x590>
    1648:	00072783          	lw	a5,0(a4)
    164c:	fffe8e93          	addi	t4,t4,-1
    1650:	1c060e63          	beqz	a2,182c <core_list_init+0x63c>
    1654:	00e62023          	sw	a4,0(a2)
    1658:	00070613          	mv	a2,a4
    165c:	12078263          	beqz	a5,1780 <core_list_init+0x590>
    1660:	00078713          	mv	a4,a5
    1664:	00072783          	lw	a5,0(a4)
    1668:	fffe8e93          	addi	t4,t4,-1
    166c:	1a060c63          	beqz	a2,1824 <core_list_init+0x634>
    1670:	00e62023          	sw	a4,0(a2)
    1674:	00070613          	mv	a2,a4
    1678:	10078463          	beqz	a5,1780 <core_list_init+0x590>
    167c:	00078713          	mv	a4,a5
    1680:	00072783          	lw	a5,0(a4)
    1684:	fffe8e93          	addi	t4,t4,-1
    1688:	18060a63          	beqz	a2,181c <core_list_init+0x62c>
    168c:	00e62023          	sw	a4,0(a2)
    1690:	00070613          	mv	a2,a4
    1694:	0e078663          	beqz	a5,1780 <core_list_init+0x590>
    1698:	00078713          	mv	a4,a5
    169c:	00072783          	lw	a5,0(a4)
    16a0:	fffe8e93          	addi	t4,t4,-1
    16a4:	16060863          	beqz	a2,1814 <core_list_init+0x624>
    16a8:	00e62023          	sw	a4,0(a2)
    16ac:	00070613          	mv	a2,a4
    16b0:	0c078863          	beqz	a5,1780 <core_list_init+0x590>
    16b4:	00078713          	mv	a4,a5
    16b8:	00072783          	lw	a5,0(a4)
    16bc:	fffe8e93          	addi	t4,t4,-1
    16c0:	14060663          	beqz	a2,180c <core_list_init+0x61c>
    16c4:	00e62023          	sw	a4,0(a2)
    16c8:	00070613          	mv	a2,a4
    16cc:	0a078a63          	beqz	a5,1780 <core_list_init+0x590>
    16d0:	00078713          	mv	a4,a5
    16d4:	00072783          	lw	a5,0(a4)
    16d8:	fffe8e93          	addi	t4,t4,-1
    16dc:	0c060a63          	beqz	a2,17b0 <core_list_init+0x5c0>
    16e0:	00e62023          	sw	a4,0(a2)
    16e4:	0c0e8a63          	beqz	t4,17b8 <core_list_init+0x5c8>
    16e8:	00070613          	mv	a2,a4
    16ec:	08078a63          	beqz	a5,1780 <core_list_init+0x590>
    16f0:	0007a683          	lw	a3,0(a5)
    16f4:	0c070c63          	beqz	a4,17cc <core_list_init+0x5dc>
    16f8:	00f72023          	sw	a5,0(a4)
    16fc:	00078613          	mv	a2,a5
    1700:	08068063          	beqz	a3,1780 <core_list_init+0x590>
    1704:	0006a703          	lw	a4,0(a3)
    1708:	0c078663          	beqz	a5,17d4 <core_list_init+0x5e4>
    170c:	00d7a023          	sw	a3,0(a5)
    1710:	00068613          	mv	a2,a3
    1714:	06070663          	beqz	a4,1780 <core_list_init+0x590>
    1718:	00072783          	lw	a5,0(a4)
    171c:	0c068063          	beqz	a3,17dc <core_list_init+0x5ec>
    1720:	00e6a023          	sw	a4,0(a3)
    1724:	00070613          	mv	a2,a4
    1728:	04078c63          	beqz	a5,1780 <core_list_init+0x590>
    172c:	0007a683          	lw	a3,0(a5)
    1730:	0a070a63          	beqz	a4,17e4 <core_list_init+0x5f4>
    1734:	00f72023          	sw	a5,0(a4)
    1738:	00078613          	mv	a2,a5
    173c:	04068263          	beqz	a3,1780 <core_list_init+0x590>
    1740:	0006a583          	lw	a1,0(a3)
    1744:	0a078463          	beqz	a5,17ec <core_list_init+0x5fc>
    1748:	00d7a023          	sw	a3,0(a5)
    174c:	00068613          	mv	a2,a3
    1750:	02058863          	beqz	a1,1780 <core_list_init+0x590>
    1754:	0005a783          	lw	a5,0(a1)
    1758:	08068e63          	beqz	a3,17f4 <core_list_init+0x604>
    175c:	00b6a023          	sw	a1,0(a3)
    1760:	00058613          	mv	a2,a1
    1764:	00078e63          	beqz	a5,1780 <core_list_init+0x590>
    1768:	0007a703          	lw	a4,0(a5)
    176c:	ff9e8e93          	addi	t4,t4,-7
    1770:	08058663          	beqz	a1,17fc <core_list_init+0x60c>
    1774:	00f5a023          	sw	a5,0(a1)
    1778:	00078613          	mv	a2,a5
    177c:	f4071ce3          	bnez	a4,16d4 <core_list_init+0x4e4>
    1780:	00062023          	sw	zero,0(a2)
    1784:	0a53d863          	bge	t2,t0,1834 <core_list_init+0x644>
    1788:	00050693          	mv	a3,a0
    178c:	001f9f93          	slli	t6,t6,0x1
    1790:	c4069ae3          	bnez	a3,13e4 <core_list_init+0x1f4>
    1794:	00002023          	sw	zero,0(zero) # 0 <_start>
    1798:	00100073          	ebreak
    179c:	00068513          	mv	a0,a3
    17a0:	02070263          	beqz	a4,17c4 <core_list_init+0x5d4>
    17a4:	00068613          	mv	a2,a3
    17a8:	00070693          	mv	a3,a4
    17ac:	c45ff06f          	j	13f0 <core_list_init+0x200>
    17b0:	00070513          	mv	a0,a4
    17b4:	f20e9ae3          	bnez	t4,16e8 <core_list_init+0x4f8>
    17b8:	00070693          	mv	a3,a4
    17bc:	00078713          	mv	a4,a5
    17c0:	fe0712e3          	bnez	a4,17a4 <core_list_init+0x5b4>
    17c4:	00068613          	mv	a2,a3
    17c8:	fb9ff06f          	j	1780 <core_list_init+0x590>
    17cc:	00078513          	mv	a0,a5
    17d0:	f2dff06f          	j	16fc <core_list_init+0x50c>
    17d4:	00068513          	mv	a0,a3
    17d8:	f39ff06f          	j	1710 <core_list_init+0x520>
    17dc:	00070513          	mv	a0,a4
    17e0:	f45ff06f          	j	1724 <core_list_init+0x534>
    17e4:	00078513          	mv	a0,a5
    17e8:	f51ff06f          	j	1738 <core_list_init+0x548>
    17ec:	00068513          	mv	a0,a3
    17f0:	f5dff06f          	j	174c <core_list_init+0x55c>
    17f4:	00058513          	mv	a0,a1
    17f8:	f69ff06f          	j	1760 <core_list_init+0x570>
    17fc:	00078513          	mv	a0,a5
    1800:	f79ff06f          	j	1778 <core_list_init+0x588>
    1804:	00070513          	mv	a0,a4
    1808:	dedff06f          	j	15f4 <core_list_init+0x404>
    180c:	00070513          	mv	a0,a4
    1810:	eb9ff06f          	j	16c8 <core_list_init+0x4d8>
    1814:	00070513          	mv	a0,a4
    1818:	e95ff06f          	j	16ac <core_list_init+0x4bc>
    181c:	00070513          	mv	a0,a4
    1820:	e71ff06f          	j	1690 <core_list_init+0x4a0>
    1824:	00070513          	mv	a0,a4
    1828:	e4dff06f          	j	1674 <core_list_init+0x484>
    182c:	00070513          	mv	a0,a4
    1830:	e29ff06f          	j	1658 <core_list_init+0x468>
    1834:	00008067          	ret
    1838:	00068513          	mv	a0,a3
    183c:	e05ff06f          	j	1640 <core_list_init+0x450>
    1840:	003f1793          	slli	a5,t5,0x3
    1844:	0787f793          	andi	a5,a5,120
    1848:	00879813          	slli	a6,a5,0x8
    184c:	010787b3          	add	a5,a5,a6
    1850:	01079793          	slli	a5,a5,0x10
    1854:	00870813          	addi	a6,a4,8
    1858:	4107d793          	srai	a5,a5,0x10
    185c:	03187663          	bgeu	a6,a7,1888 <core_list_init+0x698>
    1860:	00458e13          	addi	t3,a1,4
    1864:	03de7263          	bgeu	t3,t4,1888 <core_list_init+0x698>
    1868:	00c72023          	sw	a2,0(a4)
    186c:	00e6a023          	sw	a4,0(a3)
    1870:	00b72223          	sw	a1,4(a4)
    1874:	00f59023          	sh	a5,0(a1)
    1878:	01f59123          	sh	t6,2(a1)
    187c:	00070613          	mv	a2,a4
    1880:	000e0593          	mv	a1,t3
    1884:	00080713          	mv	a4,a6
    1888:	00100813          	li	a6,1
    188c:	a10510e3          	bne	a0,a6,128c <core_list_init+0x9c>
    1890:	ac1ff06f          	j	1350 <core_list_init+0x160>
    1894:	00060693          	mv	a3,a2
    1898:	f09ff06f          	j	17a0 <core_list_init+0x5b0>
    189c:	00060713          	mv	a4,a2
    18a0:	00078593          	mv	a1,a5
    18a4:	00000613          	li	a2,0
    18a8:	9c5ff06f          	j	126c <core_list_init+0x7c>
    18ac:	00060713          	mv	a4,a2
    18b0:	00078593          	mv	a1,a5
    18b4:	00000613          	li	a2,0
    18b8:	9b5ff06f          	j	126c <core_list_init+0x7c>
    18bc:	00000013          	nop

000018c0 <core_list_insert_new>:
    18c0:	00062803          	lw	a6,0(a2)
    18c4:	00880893          	addi	a7,a6,8
    18c8:	04e8f663          	bgeu	a7,a4,1914 <core_list_insert_new+0x54>
    18cc:	0006a703          	lw	a4,0(a3)
    18d0:	00470313          	addi	t1,a4,4
    18d4:	04f37663          	bgeu	t1,a5,1920 <core_list_insert_new+0x60>
    18d8:	01162023          	sw	a7,0(a2)
    18dc:	00052783          	lw	a5,0(a0)
    18e0:	00059883          	lh	a7,0(a1)
    18e4:	00259603          	lh	a2,2(a1)
    18e8:	00f82023          	sw	a5,0(a6)
    18ec:	01052023          	sw	a6,0(a0)
    18f0:	00e82223          	sw	a4,4(a6)
    18f4:	0006a783          	lw	a5,0(a3)
    18f8:	00080513          	mv	a0,a6
    18fc:	00478793          	addi	a5,a5,4
    1900:	00f6a023          	sw	a5,0(a3)
    1904:	00482783          	lw	a5,4(a6)
    1908:	01179023          	sh	a7,0(a5)
    190c:	00c79123          	sh	a2,2(a5)
    1910:	00008067          	ret
    1914:	00000813          	li	a6,0
    1918:	00080513          	mv	a0,a6
    191c:	00008067          	ret
    1920:	00000813          	li	a6,0
    1924:	00080513          	mv	a0,a6
    1928:	00008067          	ret
    192c:	00000013          	nop

00001930 <core_list_remove>:
    1930:	00050793          	mv	a5,a0
    1934:	00052503          	lw	a0,0(a0)
    1938:	0047a683          	lw	a3,4(a5)
    193c:	00452603          	lw	a2,4(a0)
    1940:	00052703          	lw	a4,0(a0)
    1944:	00c7a223          	sw	a2,4(a5)
    1948:	00d52223          	sw	a3,4(a0)
    194c:	00e7a023          	sw	a4,0(a5)
    1950:	00052023          	sw	zero,0(a0)
    1954:	00008067          	ret
    1958:	00000013          	nop
    195c:	00000013          	nop

00001960 <core_list_undo_remove>:
    1960:	0045a603          	lw	a2,4(a1)
    1964:	00452683          	lw	a3,4(a0)
    1968:	0005a703          	lw	a4,0(a1)
    196c:	00c52223          	sw	a2,4(a0)
    1970:	00d5a223          	sw	a3,4(a1)
    1974:	00e52023          	sw	a4,0(a0)
    1978:	00a5a023          	sw	a0,0(a1)
    197c:	00008067          	ret

00001980 <core_list_find>:
    1980:	00259703          	lh	a4,2(a1)
    1984:	02074263          	bltz	a4,19a8 <core_list_find+0x28>
    1988:	00051863          	bnez	a0,1998 <core_list_find+0x18>
    198c:	00008067          	ret
    1990:	00052503          	lw	a0,0(a0)
    1994:	02050c63          	beqz	a0,19cc <core_list_find+0x4c>
    1998:	00452783          	lw	a5,4(a0)
    199c:	00279783          	lh	a5,2(a5)
    19a0:	fee798e3          	bne	a5,a4,1990 <core_list_find+0x10>
    19a4:	00008067          	ret
    19a8:	02050663          	beqz	a0,19d4 <core_list_find+0x54>
    19ac:	00059703          	lh	a4,0(a1)
    19b0:	00c0006f          	j	19bc <core_list_find+0x3c>
    19b4:	00052503          	lw	a0,0(a0)
    19b8:	00050c63          	beqz	a0,19d0 <core_list_find+0x50>
    19bc:	00452783          	lw	a5,4(a0)
    19c0:	0007c783          	lbu	a5,0(a5)
    19c4:	fee798e3          	bne	a5,a4,19b4 <core_list_find+0x34>
    19c8:	00008067          	ret
    19cc:	00000513          	li	a0,0
    19d0:	00008067          	ret
    19d4:	00000513          	li	a0,0
    19d8:	00008067          	ret
    19dc:	00000013          	nop

000019e0 <core_list_reverse>:
    19e0:	02050063          	beqz	a0,1a00 <core_list_reverse+0x20>
    19e4:	00000713          	li	a4,0
    19e8:	0080006f          	j	19f0 <core_list_reverse+0x10>
    19ec:	00078513          	mv	a0,a5
    19f0:	00052783          	lw	a5,0(a0)
    19f4:	00e52023          	sw	a4,0(a0)
    19f8:	00050713          	mv	a4,a0
    19fc:	fe0798e3          	bnez	a5,19ec <core_list_reverse+0xc>
    1a00:	00008067          	ret
    1a04:	00000013          	nop
    1a08:	00000013          	nop
    1a0c:	00000013          	nop

00001a10 <core_list_mergesort>:
    1a10:	fd010113          	addi	sp,sp,-48
    1a14:	03212023          	sw	s2,32(sp)
    1a18:	01612823          	sw	s6,16(sp)
    1a1c:	01712623          	sw	s7,12(sp)
    1a20:	01812423          	sw	s8,8(sp)
    1a24:	01a12023          	sw	s10,0(sp)
    1a28:	00100c13          	li	s8,1
    1a2c:	02112623          	sw	ra,44(sp)
    1a30:	02812423          	sw	s0,40(sp)
    1a34:	02912223          	sw	s1,36(sp)
    1a38:	01312e23          	sw	s3,28(sp)
    1a3c:	01412c23          	sw	s4,24(sp)
    1a40:	01512a23          	sw	s5,20(sp)
    1a44:	01912223          	sw	s9,4(sp)
    1a48:	00050913          	mv	s2,a0
    1a4c:	00058b93          	mv	s7,a1
    1a50:	00060b13          	mv	s6,a2
    1a54:	000c0d13          	mv	s10,s8
    1a58:	36090c63          	beqz	s2,1dd0 <core_list_mergesort+0x3c0>
    1a5c:	00000c93          	li	s9,0
    1a60:	00000993          	li	s3,0
    1a64:	00000a93          	li	s5,0
    1a68:	007c7793          	andi	a5,s8,7
    1a6c:	00090493          	mv	s1,s2
    1a70:	00000413          	li	s0,0
    1a74:	001c8c93          	addi	s9,s9,1
    1a78:	08078463          	beqz	a5,1b00 <core_list_mergesort+0xf0>
    1a7c:	0f805663          	blez	s8,1b68 <core_list_mergesort+0x158>
    1a80:	00092483          	lw	s1,0(s2)
    1a84:	00100413          	li	s0,1
    1a88:	0e048063          	beqz	s1,1b68 <core_list_mergesort+0x158>
    1a8c:	06878a63          	beq	a5,s0,1b00 <core_list_mergesort+0xf0>
    1a90:	00200713          	li	a4,2
    1a94:	06e78063          	beq	a5,a4,1af4 <core_list_mergesort+0xe4>
    1a98:	00300693          	li	a3,3
    1a9c:	04d78663          	beq	a5,a3,1ae8 <core_list_mergesort+0xd8>
    1aa0:	00400693          	li	a3,4
    1aa4:	02d78c63          	beq	a5,a3,1adc <core_list_mergesort+0xcc>
    1aa8:	00500693          	li	a3,5
    1aac:	02d78263          	beq	a5,a3,1ad0 <core_list_mergesort+0xc0>
    1ab0:	00600693          	li	a3,6
    1ab4:	00d78863          	beq	a5,a3,1ac4 <core_list_mergesort+0xb4>
    1ab8:	0004a483          	lw	s1,0(s1)
    1abc:	00070413          	mv	s0,a4
    1ac0:	0a048463          	beqz	s1,1b68 <core_list_mergesort+0x158>
    1ac4:	0004a483          	lw	s1,0(s1)
    1ac8:	00140413          	addi	s0,s0,1
    1acc:	08048e63          	beqz	s1,1b68 <core_list_mergesort+0x158>
    1ad0:	0004a483          	lw	s1,0(s1)
    1ad4:	00140413          	addi	s0,s0,1
    1ad8:	08048863          	beqz	s1,1b68 <core_list_mergesort+0x158>
    1adc:	0004a483          	lw	s1,0(s1)
    1ae0:	00140413          	addi	s0,s0,1
    1ae4:	08048263          	beqz	s1,1b68 <core_list_mergesort+0x158>
    1ae8:	0004a483          	lw	s1,0(s1)
    1aec:	00140413          	addi	s0,s0,1
    1af0:	06048c63          	beqz	s1,1b68 <core_list_mergesort+0x158>
    1af4:	0004a483          	lw	s1,0(s1)
    1af8:	00140413          	addi	s0,s0,1
    1afc:	06048663          	beqz	s1,1b68 <core_list_mergesort+0x158>
    1b00:	07845463          	bge	s0,s8,1b68 <core_list_mergesort+0x158>
    1b04:	0004a483          	lw	s1,0(s1)
    1b08:	00140413          	addi	s0,s0,1
    1b0c:	00040793          	mv	a5,s0
    1b10:	04048c63          	beqz	s1,1b68 <core_list_mergesort+0x158>
    1b14:	0004a483          	lw	s1,0(s1)
    1b18:	00140413          	addi	s0,s0,1
    1b1c:	04048663          	beqz	s1,1b68 <core_list_mergesort+0x158>
    1b20:	0004a483          	lw	s1,0(s1)
    1b24:	00278413          	addi	s0,a5,2
    1b28:	04048063          	beqz	s1,1b68 <core_list_mergesort+0x158>
    1b2c:	0004a483          	lw	s1,0(s1)
    1b30:	00378413          	addi	s0,a5,3
    1b34:	02048a63          	beqz	s1,1b68 <core_list_mergesort+0x158>
    1b38:	0004a483          	lw	s1,0(s1)
    1b3c:	00478413          	addi	s0,a5,4
    1b40:	02048463          	beqz	s1,1b68 <core_list_mergesort+0x158>
    1b44:	0004a483          	lw	s1,0(s1)
    1b48:	00578413          	addi	s0,a5,5
    1b4c:	00048e63          	beqz	s1,1b68 <core_list_mergesort+0x158>
    1b50:	0004a483          	lw	s1,0(s1)
    1b54:	00678413          	addi	s0,a5,6
    1b58:	00048863          	beqz	s1,1b68 <core_list_mergesort+0x158>
    1b5c:	0004a483          	lw	s1,0(s1)
    1b60:	00778413          	addi	s0,a5,7
    1b64:	f8049ee3          	bnez	s1,1b00 <core_list_mergesort+0xf0>
    1b68:	000c0a13          	mv	s4,s8
    1b6c:	02805463          	blez	s0,1b94 <core_list_mergesort+0x184>
    1b70:	060a0063          	beqz	s4,1bd0 <core_list_mergesort+0x1c0>
    1b74:	02049663          	bnez	s1,1ba0 <core_list_mergesort+0x190>
    1b78:	00090793          	mv	a5,s2
    1b7c:	00092903          	lw	s2,0(s2)
    1b80:	fff40413          	addi	s0,s0,-1
    1b84:	04098063          	beqz	s3,1bc4 <core_list_mergesort+0x1b4>
    1b88:	00f9a023          	sw	a5,0(s3)
    1b8c:	00078993          	mv	s3,a5
    1b90:	fe8040e3          	bgtz	s0,1b70 <core_list_mergesort+0x160>
    1b94:	33405063          	blez	s4,1eb4 <core_list_mergesort+0x4a4>
    1b98:	22048263          	beqz	s1,1dbc <core_list_mergesort+0x3ac>
    1b9c:	06040c63          	beqz	s0,1c14 <core_list_mergesort+0x204>
    1ba0:	0044a583          	lw	a1,4(s1)
    1ba4:	00492503          	lw	a0,4(s2)
    1ba8:	000b0613          	mv	a2,s6
    1bac:	000b80e7          	jalr	s7
    1bb0:	04a05a63          	blez	a0,1c04 <core_list_mergesort+0x1f4>
    1bb4:	00048793          	mv	a5,s1
    1bb8:	fffa0a13          	addi	s4,s4,-1
    1bbc:	0004a483          	lw	s1,0(s1)
    1bc0:	fc0994e3          	bnez	s3,1b88 <core_list_mergesort+0x178>
    1bc4:	00078a93          	mv	s5,a5
    1bc8:	00078993          	mv	s3,a5
    1bcc:	fc5ff06f          	j	1b90 <core_list_mergesort+0x180>
    1bd0:	00092783          	lw	a5,0(s2)
    1bd4:	fff40413          	addi	s0,s0,-1
    1bd8:	02098063          	beqz	s3,1bf8 <core_list_mergesort+0x1e8>
    1bdc:	0129a023          	sw	s2,0(s3)
    1be0:	1e040e63          	beqz	s0,1ddc <core_list_mergesort+0x3cc>
    1be4:	00090993          	mv	s3,s2
    1be8:	00078913          	mv	s2,a5
    1bec:	00092783          	lw	a5,0(s2)
    1bf0:	fff40413          	addi	s0,s0,-1
    1bf4:	fe0994e3          	bnez	s3,1bdc <core_list_mergesort+0x1cc>
    1bf8:	1e040063          	beqz	s0,1dd8 <core_list_mergesort+0x3c8>
    1bfc:	00090a93          	mv	s5,s2
    1c00:	fe5ff06f          	j	1be4 <core_list_mergesort+0x1d4>
    1c04:	00090793          	mv	a5,s2
    1c08:	fff40413          	addi	s0,s0,-1
    1c0c:	00092903          	lw	s2,0(s2)
    1c10:	f75ff06f          	j	1b84 <core_list_mergesort+0x174>
    1c14:	fffa0693          	addi	a3,s4,-1
    1c18:	0076f793          	andi	a5,a3,7
    1c1c:	0e078a63          	beqz	a5,1d10 <core_list_mergesort+0x300>
    1c20:	0004a703          	lw	a4,0(s1)
    1c24:	00068a13          	mv	s4,a3
    1c28:	20098c63          	beqz	s3,1e40 <core_list_mergesort+0x430>
    1c2c:	0099a023          	sw	s1,0(s3)
    1c30:	00048993          	mv	s3,s1
    1c34:	18070463          	beqz	a4,1dbc <core_list_mergesort+0x3ac>
    1c38:	00100693          	li	a3,1
    1c3c:	00070493          	mv	s1,a4
    1c40:	0cd78863          	beq	a5,a3,1d10 <core_list_mergesort+0x300>
    1c44:	00200693          	li	a3,2
    1c48:	0ad78663          	beq	a5,a3,1cf4 <core_list_mergesort+0x2e4>
    1c4c:	00300693          	li	a3,3
    1c50:	08d78463          	beq	a5,a3,1cd8 <core_list_mergesort+0x2c8>
    1c54:	00400693          	li	a3,4
    1c58:	06d78263          	beq	a5,a3,1cbc <core_list_mergesort+0x2ac>
    1c5c:	00500693          	li	a3,5
    1c60:	04d78063          	beq	a5,a3,1ca0 <core_list_mergesort+0x290>
    1c64:	00600693          	li	a3,6
    1c68:	00d78e63          	beq	a5,a3,1c84 <core_list_mergesort+0x274>
    1c6c:	00072483          	lw	s1,0(a4)
    1c70:	fffa0a13          	addi	s4,s4,-1
    1c74:	22098c63          	beqz	s3,1eac <core_list_mergesort+0x49c>
    1c78:	00e9a023          	sw	a4,0(s3)
    1c7c:	00070993          	mv	s3,a4
    1c80:	12048e63          	beqz	s1,1dbc <core_list_mergesort+0x3ac>
    1c84:	0004a783          	lw	a5,0(s1)
    1c88:	fffa0a13          	addi	s4,s4,-1
    1c8c:	1c098e63          	beqz	s3,1e68 <core_list_mergesort+0x458>
    1c90:	0099a023          	sw	s1,0(s3)
    1c94:	00048993          	mv	s3,s1
    1c98:	12078263          	beqz	a5,1dbc <core_list_mergesort+0x3ac>
    1c9c:	00078493          	mv	s1,a5
    1ca0:	0004a783          	lw	a5,0(s1)
    1ca4:	fffa0a13          	addi	s4,s4,-1
    1ca8:	1a098c63          	beqz	s3,1e60 <core_list_mergesort+0x450>
    1cac:	0099a023          	sw	s1,0(s3)
    1cb0:	00048993          	mv	s3,s1
    1cb4:	10078463          	beqz	a5,1dbc <core_list_mergesort+0x3ac>
    1cb8:	00078493          	mv	s1,a5
    1cbc:	0004a783          	lw	a5,0(s1)
    1cc0:	fffa0a13          	addi	s4,s4,-1
    1cc4:	18098a63          	beqz	s3,1e58 <core_list_mergesort+0x448>
    1cc8:	0099a023          	sw	s1,0(s3)
    1ccc:	00048993          	mv	s3,s1
    1cd0:	0e078663          	beqz	a5,1dbc <core_list_mergesort+0x3ac>
    1cd4:	00078493          	mv	s1,a5
    1cd8:	0004a783          	lw	a5,0(s1)
    1cdc:	fffa0a13          	addi	s4,s4,-1
    1ce0:	16098863          	beqz	s3,1e50 <core_list_mergesort+0x440>
    1ce4:	0099a023          	sw	s1,0(s3)
    1ce8:	00048993          	mv	s3,s1
    1cec:	0c078863          	beqz	a5,1dbc <core_list_mergesort+0x3ac>
    1cf0:	00078493          	mv	s1,a5
    1cf4:	0004a783          	lw	a5,0(s1)
    1cf8:	fffa0a13          	addi	s4,s4,-1
    1cfc:	14098663          	beqz	s3,1e48 <core_list_mergesort+0x438>
    1d00:	0099a023          	sw	s1,0(s3)
    1d04:	00048993          	mv	s3,s1
    1d08:	0a078a63          	beqz	a5,1dbc <core_list_mergesort+0x3ac>
    1d0c:	00078493          	mv	s1,a5
    1d10:	0004a783          	lw	a5,0(s1)
    1d14:	fffa0a13          	addi	s4,s4,-1
    1d18:	0c098a63          	beqz	s3,1dec <core_list_mergesort+0x3dc>
    1d1c:	0099a023          	sw	s1,0(s3)
    1d20:	0c0a0a63          	beqz	s4,1df4 <core_list_mergesort+0x3e4>
    1d24:	00048993          	mv	s3,s1
    1d28:	08078a63          	beqz	a5,1dbc <core_list_mergesort+0x3ac>
    1d2c:	0007a703          	lw	a4,0(a5)
    1d30:	0c048c63          	beqz	s1,1e08 <core_list_mergesort+0x3f8>
    1d34:	00f4a023          	sw	a5,0(s1)
    1d38:	00078993          	mv	s3,a5
    1d3c:	08070063          	beqz	a4,1dbc <core_list_mergesort+0x3ac>
    1d40:	00072683          	lw	a3,0(a4)
    1d44:	0c078663          	beqz	a5,1e10 <core_list_mergesort+0x400>
    1d48:	00e7a023          	sw	a4,0(a5)
    1d4c:	00070993          	mv	s3,a4
    1d50:	06068663          	beqz	a3,1dbc <core_list_mergesort+0x3ac>
    1d54:	0006a783          	lw	a5,0(a3)
    1d58:	0c070063          	beqz	a4,1e18 <core_list_mergesort+0x408>
    1d5c:	00d72023          	sw	a3,0(a4)
    1d60:	00068993          	mv	s3,a3
    1d64:	04078c63          	beqz	a5,1dbc <core_list_mergesort+0x3ac>
    1d68:	0007a703          	lw	a4,0(a5)
    1d6c:	0a068a63          	beqz	a3,1e20 <core_list_mergesort+0x410>
    1d70:	00f6a023          	sw	a5,0(a3)
    1d74:	00078993          	mv	s3,a5
    1d78:	04070263          	beqz	a4,1dbc <core_list_mergesort+0x3ac>
    1d7c:	00072683          	lw	a3,0(a4)
    1d80:	0a078463          	beqz	a5,1e28 <core_list_mergesort+0x418>
    1d84:	00e7a023          	sw	a4,0(a5)
    1d88:	00070993          	mv	s3,a4
    1d8c:	02068863          	beqz	a3,1dbc <core_list_mergesort+0x3ac>
    1d90:	0006a783          	lw	a5,0(a3)
    1d94:	08070e63          	beqz	a4,1e30 <core_list_mergesort+0x420>
    1d98:	00d72023          	sw	a3,0(a4)
    1d9c:	00068993          	mv	s3,a3
    1da0:	00078e63          	beqz	a5,1dbc <core_list_mergesort+0x3ac>
    1da4:	0007a483          	lw	s1,0(a5)
    1da8:	ff9a0a13          	addi	s4,s4,-7
    1dac:	08068663          	beqz	a3,1e38 <core_list_mergesort+0x428>
    1db0:	00f6a023          	sw	a5,0(a3)
    1db4:	00078993          	mv	s3,a5
    1db8:	f4049ce3          	bnez	s1,1d10 <core_list_mergesort+0x300>
    1dbc:	0009a023          	sw	zero,0(s3)
    1dc0:	0b9d5863          	bge	s10,s9,1e70 <core_list_mergesort+0x460>
    1dc4:	000a8913          	mv	s2,s5
    1dc8:	001c1c13          	slli	s8,s8,0x1
    1dcc:	c80918e3          	bnez	s2,1a5c <core_list_mergesort+0x4c>
    1dd0:	00002023          	sw	zero,0(zero) # 0 <_start>
    1dd4:	00100073          	ebreak
    1dd8:	00090a93          	mv	s5,s2
    1ddc:	02048263          	beqz	s1,1e00 <core_list_mergesort+0x3f0>
    1de0:	00090993          	mv	s3,s2
    1de4:	00048913          	mv	s2,s1
    1de8:	c81ff06f          	j	1a68 <core_list_mergesort+0x58>
    1dec:	00048a93          	mv	s5,s1
    1df0:	f20a1ae3          	bnez	s4,1d24 <core_list_mergesort+0x314>
    1df4:	00048913          	mv	s2,s1
    1df8:	00078493          	mv	s1,a5
    1dfc:	fe0492e3          	bnez	s1,1de0 <core_list_mergesort+0x3d0>
    1e00:	00090993          	mv	s3,s2
    1e04:	fb9ff06f          	j	1dbc <core_list_mergesort+0x3ac>
    1e08:	00078a93          	mv	s5,a5
    1e0c:	f2dff06f          	j	1d38 <core_list_mergesort+0x328>
    1e10:	00070a93          	mv	s5,a4
    1e14:	f39ff06f          	j	1d4c <core_list_mergesort+0x33c>
    1e18:	00068a93          	mv	s5,a3
    1e1c:	f45ff06f          	j	1d60 <core_list_mergesort+0x350>
    1e20:	00078a93          	mv	s5,a5
    1e24:	f51ff06f          	j	1d74 <core_list_mergesort+0x364>
    1e28:	00070a93          	mv	s5,a4
    1e2c:	f5dff06f          	j	1d88 <core_list_mergesort+0x378>
    1e30:	00068a93          	mv	s5,a3
    1e34:	f69ff06f          	j	1d9c <core_list_mergesort+0x38c>
    1e38:	00078a93          	mv	s5,a5
    1e3c:	f79ff06f          	j	1db4 <core_list_mergesort+0x3a4>
    1e40:	00048a93          	mv	s5,s1
    1e44:	dedff06f          	j	1c30 <core_list_mergesort+0x220>
    1e48:	00048a93          	mv	s5,s1
    1e4c:	eb9ff06f          	j	1d04 <core_list_mergesort+0x2f4>
    1e50:	00048a93          	mv	s5,s1
    1e54:	e95ff06f          	j	1ce8 <core_list_mergesort+0x2d8>
    1e58:	00048a93          	mv	s5,s1
    1e5c:	e71ff06f          	j	1ccc <core_list_mergesort+0x2bc>
    1e60:	00048a93          	mv	s5,s1
    1e64:	e4dff06f          	j	1cb0 <core_list_mergesort+0x2a0>
    1e68:	00048a93          	mv	s5,s1
    1e6c:	e29ff06f          	j	1c94 <core_list_mergesort+0x284>
    1e70:	02c12083          	lw	ra,44(sp)
    1e74:	02812403          	lw	s0,40(sp)
    1e78:	02412483          	lw	s1,36(sp)
    1e7c:	02012903          	lw	s2,32(sp)
    1e80:	01c12983          	lw	s3,28(sp)
    1e84:	01812a03          	lw	s4,24(sp)
    1e88:	01012b03          	lw	s6,16(sp)
    1e8c:	00c12b83          	lw	s7,12(sp)
    1e90:	00812c03          	lw	s8,8(sp)
    1e94:	00412c83          	lw	s9,4(sp)
    1e98:	00012d03          	lw	s10,0(sp)
    1e9c:	000a8513          	mv	a0,s5
    1ea0:	01412a83          	lw	s5,20(sp)
    1ea4:	03010113          	addi	sp,sp,48
    1ea8:	00008067          	ret
    1eac:	00070a93          	mv	s5,a4
    1eb0:	dcdff06f          	j	1c7c <core_list_mergesort+0x26c>
    1eb4:	00098913          	mv	s2,s3
    1eb8:	f25ff06f          	j	1ddc <core_list_mergesort+0x3cc>

00001ebc <core_bench_list.cold>:
    1ebc:	00002023          	sw	zero,0(zero) # 0 <_start>
    1ec0:	00100073          	ebreak
    1ec4:	00002023          	sw	zero,0(zero) # 0 <_start>
    1ec8:	00100073          	ebreak
    1ecc:	00002783          	lw	a5,0(zero) # 0 <_start>
    1ed0:	00100073          	ebreak
	...

00001ee0 <iterate>:
    1ee0:	fe010113          	addi	sp,sp,-32
    1ee4:	01312623          	sw	s3,12(sp)
    1ee8:	01c52983          	lw	s3,28(a0)
    1eec:	00112e23          	sw	ra,28(sp)
    1ef0:	02052c23          	sw	zero,56(a0)
    1ef4:	02052e23          	sw	zero,60(a0)
    1ef8:	1e098663          	beqz	s3,20e4 <iterate+0x204>
    1efc:	00812c23          	sw	s0,24(sp)
    1f00:	00912a23          	sw	s1,20(sp)
    1f04:	01212823          	sw	s2,16(sp)
    1f08:	0039f793          	andi	a5,s3,3
    1f0c:	00050413          	mv	s0,a0
    1f10:	00000493          	li	s1,0
    1f14:	1e078663          	beqz	a5,2100 <iterate+0x220>
    1f18:	00100913          	li	s2,1
    1f1c:	07278c63          	beq	a5,s2,1f94 <iterate+0xb4>
    1f20:	00200713          	li	a4,2
    1f24:	02e78c63          	beq	a5,a4,1f5c <iterate+0x7c>
    1f28:	00090593          	mv	a1,s2
    1f2c:	ce4fe0ef          	jal	410 <core_bench_list>
    1f30:	03845583          	lhu	a1,56(s0)
    1f34:	00090493          	mv	s1,s2
    1f38:	7b8060ef          	jal	86f0 <crcu16>
    1f3c:	02a41c23          	sh	a0,56(s0)
    1f40:	fff00593          	li	a1,-1
    1f44:	00040513          	mv	a0,s0
    1f48:	cc8fe0ef          	jal	410 <core_bench_list>
    1f4c:	03845583          	lhu	a1,56(s0)
    1f50:	7a0060ef          	jal	86f0 <crcu16>
    1f54:	02a41c23          	sh	a0,56(s0)
    1f58:	02a41d23          	sh	a0,58(s0)
    1f5c:	00100593          	li	a1,1
    1f60:	00040513          	mv	a0,s0
    1f64:	cacfe0ef          	jal	410 <core_bench_list>
    1f68:	03845583          	lhu	a1,56(s0)
    1f6c:	784060ef          	jal	86f0 <crcu16>
    1f70:	02a41c23          	sh	a0,56(s0)
    1f74:	fff00593          	li	a1,-1
    1f78:	00040513          	mv	a0,s0
    1f7c:	c94fe0ef          	jal	410 <core_bench_list>
    1f80:	03845583          	lhu	a1,56(s0)
    1f84:	76c060ef          	jal	86f0 <crcu16>
    1f88:	02a41c23          	sh	a0,56(s0)
    1f8c:	16048e63          	beqz	s1,2108 <iterate+0x228>
    1f90:	00148493          	addi	s1,s1,1
    1f94:	00100593          	li	a1,1
    1f98:	00040513          	mv	a0,s0
    1f9c:	c74fe0ef          	jal	410 <core_bench_list>
    1fa0:	03845583          	lhu	a1,56(s0)
    1fa4:	74c060ef          	jal	86f0 <crcu16>
    1fa8:	02a41c23          	sh	a0,56(s0)
    1fac:	fff00593          	li	a1,-1
    1fb0:	00040513          	mv	a0,s0
    1fb4:	c5cfe0ef          	jal	410 <core_bench_list>
    1fb8:	03845583          	lhu	a1,56(s0)
    1fbc:	734060ef          	jal	86f0 <crcu16>
    1fc0:	02a41c23          	sh	a0,56(s0)
    1fc4:	12048a63          	beqz	s1,20f8 <iterate+0x218>
    1fc8:	00148493          	addi	s1,s1,1
    1fcc:	14998463          	beq	s3,s1,2114 <iterate+0x234>
    1fd0:	01412423          	sw	s4,8(sp)
    1fd4:	00100593          	li	a1,1
    1fd8:	00040513          	mv	a0,s0
    1fdc:	c34fe0ef          	jal	410 <core_bench_list>
    1fe0:	03845583          	lhu	a1,56(s0)
    1fe4:	70c060ef          	jal	86f0 <crcu16>
    1fe8:	02a41c23          	sh	a0,56(s0)
    1fec:	fff00593          	li	a1,-1
    1ff0:	00040513          	mv	a0,s0
    1ff4:	c1cfe0ef          	jal	410 <core_bench_list>
    1ff8:	03845583          	lhu	a1,56(s0)
    1ffc:	6f4060ef          	jal	86f0 <crcu16>
    2000:	00050793          	mv	a5,a0
    2004:	00100593          	li	a1,1
    2008:	02f41c23          	sh	a5,56(s0)
    200c:	00040513          	mv	a0,s0
    2010:	00b48933          	add	s2,s1,a1
    2014:	00049463          	bnez	s1,201c <iterate+0x13c>
    2018:	02f41d23          	sh	a5,58(s0)
    201c:	bf4fe0ef          	jal	410 <core_bench_list>
    2020:	03845583          	lhu	a1,56(s0)
    2024:	6cc060ef          	jal	86f0 <crcu16>
    2028:	02a41c23          	sh	a0,56(s0)
    202c:	fff00593          	li	a1,-1
    2030:	00040513          	mv	a0,s0
    2034:	bdcfe0ef          	jal	410 <core_bench_list>
    2038:	03845583          	lhu	a1,56(s0)
    203c:	6b4060ef          	jal	86f0 <crcu16>
    2040:	00050793          	mv	a5,a0
    2044:	00100593          	li	a1,1
    2048:	02f41c23          	sh	a5,56(s0)
    204c:	00040513          	mv	a0,s0
    2050:	00b90a33          	add	s4,s2,a1
    2054:	00091463          	bnez	s2,205c <iterate+0x17c>
    2058:	02f41d23          	sh	a5,58(s0)
    205c:	bb4fe0ef          	jal	410 <core_bench_list>
    2060:	03845583          	lhu	a1,56(s0)
    2064:	00290493          	addi	s1,s2,2
    2068:	688060ef          	jal	86f0 <crcu16>
    206c:	02a41c23          	sh	a0,56(s0)
    2070:	fff00593          	li	a1,-1
    2074:	00040513          	mv	a0,s0
    2078:	b98fe0ef          	jal	410 <core_bench_list>
    207c:	03845583          	lhu	a1,56(s0)
    2080:	670060ef          	jal	86f0 <crcu16>
    2084:	00050793          	mv	a5,a0
    2088:	02f41c23          	sh	a5,56(s0)
    208c:	00100593          	li	a1,1
    2090:	00040513          	mv	a0,s0
    2094:	000a1463          	bnez	s4,209c <iterate+0x1bc>
    2098:	02f41d23          	sh	a5,58(s0)
    209c:	b74fe0ef          	jal	410 <core_bench_list>
    20a0:	03845583          	lhu	a1,56(s0)
    20a4:	64c060ef          	jal	86f0 <crcu16>
    20a8:	02a41c23          	sh	a0,56(s0)
    20ac:	fff00593          	li	a1,-1
    20b0:	00040513          	mv	a0,s0
    20b4:	b5cfe0ef          	jal	410 <core_bench_list>
    20b8:	03845583          	lhu	a1,56(s0)
    20bc:	634060ef          	jal	86f0 <crcu16>
    20c0:	02a41c23          	sh	a0,56(s0)
    20c4:	00049463          	bnez	s1,20cc <iterate+0x1ec>
    20c8:	02a41d23          	sh	a0,58(s0)
    20cc:	00390493          	addi	s1,s2,3
    20d0:	f09992e3          	bne	s3,s1,1fd4 <iterate+0xf4>
    20d4:	01812403          	lw	s0,24(sp)
    20d8:	01412483          	lw	s1,20(sp)
    20dc:	01012903          	lw	s2,16(sp)
    20e0:	00812a03          	lw	s4,8(sp)
    20e4:	01c12083          	lw	ra,28(sp)
    20e8:	00c12983          	lw	s3,12(sp)
    20ec:	00000513          	li	a0,0
    20f0:	02010113          	addi	sp,sp,32
    20f4:	00008067          	ret
    20f8:	02a41d23          	sh	a0,58(s0)
    20fc:	ecdff06f          	j	1fc8 <iterate+0xe8>
    2100:	01412423          	sw	s4,8(sp)
    2104:	ed1ff06f          	j	1fd4 <iterate+0xf4>
    2108:	02a41d23          	sh	a0,58(s0)
    210c:	00148493          	addi	s1,s1,1
    2110:	e85ff06f          	j	1f94 <iterate+0xb4>
    2114:	01812403          	lw	s0,24(sp)
    2118:	01412483          	lw	s1,20(sp)
    211c:	01012903          	lw	s2,16(sp)
    2120:	fc5ff06f          	j	20e4 <iterate+0x204>
	...

00002130 <main>:
    2130:	81010113          	addi	sp,sp,-2032
    2134:	7e112623          	sw	ra,2028(sp)
    2138:	7e812423          	sw	s0,2024(sp)
    213c:	7e912223          	sw	s1,2020(sp)
    2140:	7f212023          	sw	s2,2016(sp)
    2144:	7d312e23          	sw	s3,2012(sp)
    2148:	7d412c23          	sw	s4,2008(sp)
    214c:	7d512a23          	sw	s5,2004(sp)
    2150:	7d612823          	sw	s6,2000(sp)
    2154:	7d712623          	sw	s7,1996(sp)
    2158:	7d812423          	sw	s8,1992(sp)
    215c:	7d912223          	sw	s9,1988(sp)
    2160:	7da12023          	sw	s10,1984(sp)
    2164:	7bb12e23          	sw	s11,1980(sp)
    2168:	f7010113          	addi	sp,sp,-144
    216c:	02810613          	addi	a2,sp,40
    2170:	02410593          	addi	a1,sp,36
    2174:	06e10513          	addi	a0,sp,110
    2178:	02012223          	sw	zero,36(sp)
    217c:	745060ef          	jal	90c0 <portable_init>
    2180:	00100513          	li	a0,1
    2184:	3bc060ef          	jal	8540 <get_seed_32>
    2188:	00050793          	mv	a5,a0
    218c:	00200513          	li	a0,2
    2190:	02f11623          	sh	a5,44(sp)
    2194:	3ac060ef          	jal	8540 <get_seed_32>
    2198:	00050793          	mv	a5,a0
    219c:	00300513          	li	a0,3
    21a0:	02f11723          	sh	a5,46(sp)
    21a4:	39c060ef          	jal	8540 <get_seed_32>
    21a8:	00050793          	mv	a5,a0
    21ac:	00400513          	li	a0,4
    21b0:	02f11823          	sh	a5,48(sp)
    21b4:	38c060ef          	jal	8540 <get_seed_32>
    21b8:	00050793          	mv	a5,a0
    21bc:	00500513          	li	a0,5
    21c0:	04f12423          	sw	a5,72(sp)
    21c4:	37c060ef          	jal	8540 <get_seed_32>
    21c8:	00051463          	bnez	a0,21d0 <main+0xa0>
    21cc:	00700513          	li	a0,7
    21d0:	02c12703          	lw	a4,44(sp)
    21d4:	04a12623          	sw	a0,76(sp)
    21d8:	84010793          	addi	a5,sp,-1984
    21dc:	4c070463          	beqz	a4,26a4 <main+0x574>
    21e0:	00100693          	li	a3,1
    21e4:	00d71663          	bne	a4,a3,21f0 <main+0xc0>
    21e8:	7f079703          	lh	a4,2032(a5)
    21ec:	56070c63          	beqz	a4,2764 <main+0x634>
    21f0:	07010693          	addi	a3,sp,112
    21f4:	02d12a23          	sw	a3,52(sp)
    21f8:	06011623          	sh	zero,108(sp)
    21fc:	00257613          	andi	a2,a0,2
    2200:	00157793          	andi	a5,a0,1
    2204:	4a061a63          	bnez	a2,26b8 <main+0x588>
    2208:	00457513          	andi	a0,a0,4
    220c:	4e050263          	beqz	a0,26f0 <main+0x5c0>
    2210:	00078593          	mv	a1,a5
    2214:	00158513          	addi	a0,a1,1
    2218:	7d000713          	li	a4,2000
    221c:	02a75733          	divu	a4,a4,a0
    2220:	04e12223          	sw	a4,68(sp)
    2224:	54079c63          	bnez	a5,277c <main+0x64c>
    2228:	54061e63          	bnez	a2,2784 <main+0x654>
    222c:	02e585b3          	mul	a1,a1,a4
    2230:	00b686b3          	add	a3,a3,a1
    2234:	04d12023          	sw	a3,64(sp)
    2238:	04c12783          	lw	a5,76(sp)
    223c:	0017f693          	andi	a3,a5,1
    2240:	00068e63          	beqz	a3,225c <main+0x12c>
    2244:	02c11603          	lh	a2,44(sp)
    2248:	03812583          	lw	a1,56(sp)
    224c:	04412503          	lw	a0,68(sp)
    2250:	fa1fe0ef          	jal	11f0 <core_list_init>
    2254:	04c12783          	lw	a5,76(sp)
    2258:	04a12823          	sw	a0,80(sp)
    225c:	0027f713          	andi	a4,a5,2
    2260:	4a071863          	bnez	a4,2710 <main+0x5e0>
    2264:	0047f793          	andi	a5,a5,4
    2268:	00078a63          	beqz	a5,227c <main+0x14c>
    226c:	04012603          	lw	a2,64(sp)
    2270:	02c11583          	lh	a1,44(sp)
    2274:	04412503          	lw	a0,68(sp)
    2278:	5b9050ef          	jal	8030 <core_init_state>
    227c:	04812783          	lw	a5,72(sp)
    2280:	26079e63          	bnez	a5,24fc <main+0x3cc>
    2284:	0001a7b7          	lui	a5,0x1a
    2288:	4c87a403          	lw	s0,1224(a5) # 1a4c8 <__DTOR_END__>
    228c:	4cc7a483          	lw	s1,1228(a5)
    2290:	00100793          	li	a5,1
    2294:	04f12423          	sw	a5,72(sp)
    2298:	02c10c13          	addi	s8,sp,44
    229c:	04812703          	lw	a4,72(sp)
    22a0:	00000d93          	li	s11,0
    22a4:	00271793          	slli	a5,a4,0x2
    22a8:	00e787b3          	add	a5,a5,a4
    22ac:	00179793          	slli	a5,a5,0x1
    22b0:	04f12423          	sw	a5,72(sp)
    22b4:	59d060ef          	jal	9050 <start_time>
    22b8:	04812d03          	lw	s10,72(sp)
    22bc:	06012223          	sw	zero,100(sp)
    22c0:	06012423          	sw	zero,104(sp)
    22c4:	1e0d0463          	beqz	s10,24ac <main+0x37c>
    22c8:	003d7793          	andi	a5,s10,3
    22cc:	0c078863          	beqz	a5,239c <main+0x26c>
    22d0:	00100c93          	li	s9,1
    22d4:	09978263          	beq	a5,s9,2358 <main+0x228>
    22d8:	00200713          	li	a4,2
    22dc:	04e78063          	beq	a5,a4,231c <main+0x1ec>
    22e0:	000c8593          	mv	a1,s9
    22e4:	000c0513          	mv	a0,s8
    22e8:	928fe0ef          	jal	410 <core_bench_list>
    22ec:	06415583          	lhu	a1,100(sp)
    22f0:	000c8d93          	mv	s11,s9
    22f4:	3fc060ef          	jal	86f0 <crcu16>
    22f8:	00050793          	mv	a5,a0
    22fc:	fff00593          	li	a1,-1
    2300:	000c0513          	mv	a0,s8
    2304:	06f11223          	sh	a5,100(sp)
    2308:	908fe0ef          	jal	410 <core_bench_list>
    230c:	06415583          	lhu	a1,100(sp)
    2310:	3e0060ef          	jal	86f0 <crcu16>
    2314:	06a11223          	sh	a0,100(sp)
    2318:	06a11323          	sh	a0,102(sp)
    231c:	00100593          	li	a1,1
    2320:	000c0513          	mv	a0,s8
    2324:	8ecfe0ef          	jal	410 <core_bench_list>
    2328:	06415583          	lhu	a1,100(sp)
    232c:	3c4060ef          	jal	86f0 <crcu16>
    2330:	00050793          	mv	a5,a0
    2334:	fff00593          	li	a1,-1
    2338:	000c0513          	mv	a0,s8
    233c:	06f11223          	sh	a5,100(sp)
    2340:	8d0fe0ef          	jal	410 <core_bench_list>
    2344:	06415583          	lhu	a1,100(sp)
    2348:	3a8060ef          	jal	86f0 <crcu16>
    234c:	06a11223          	sh	a0,100(sp)
    2350:	380d8c63          	beqz	s11,26e8 <main+0x5b8>
    2354:	001d8d93          	addi	s11,s11,1
    2358:	00100593          	li	a1,1
    235c:	000c0513          	mv	a0,s8
    2360:	8b0fe0ef          	jal	410 <core_bench_list>
    2364:	06415583          	lhu	a1,100(sp)
    2368:	388060ef          	jal	86f0 <crcu16>
    236c:	00050793          	mv	a5,a0
    2370:	fff00593          	li	a1,-1
    2374:	000c0513          	mv	a0,s8
    2378:	06f11223          	sh	a5,100(sp)
    237c:	894fe0ef          	jal	410 <core_bench_list>
    2380:	06415583          	lhu	a1,100(sp)
    2384:	36c060ef          	jal	86f0 <crcu16>
    2388:	06a11223          	sh	a0,100(sp)
    238c:	000d9463          	bnez	s11,2394 <main+0x264>
    2390:	06a11323          	sh	a0,102(sp)
    2394:	001d8d93          	addi	s11,s11,1
    2398:	11bd0a63          	beq	s10,s11,24ac <main+0x37c>
    239c:	00100593          	li	a1,1
    23a0:	000c0513          	mv	a0,s8
    23a4:	86cfe0ef          	jal	410 <core_bench_list>
    23a8:	06415583          	lhu	a1,100(sp)
    23ac:	344060ef          	jal	86f0 <crcu16>
    23b0:	00050793          	mv	a5,a0
    23b4:	fff00593          	li	a1,-1
    23b8:	000c0513          	mv	a0,s8
    23bc:	06f11223          	sh	a5,100(sp)
    23c0:	850fe0ef          	jal	410 <core_bench_list>
    23c4:	06415583          	lhu	a1,100(sp)
    23c8:	328060ef          	jal	86f0 <crcu16>
    23cc:	00050793          	mv	a5,a0
    23d0:	00100593          	li	a1,1
    23d4:	06f11223          	sh	a5,100(sp)
    23d8:	000c0513          	mv	a0,s8
    23dc:	00bd8cb3          	add	s9,s11,a1
    23e0:	000d9463          	bnez	s11,23e8 <main+0x2b8>
    23e4:	06f11323          	sh	a5,102(sp)
    23e8:	828fe0ef          	jal	410 <core_bench_list>
    23ec:	06415583          	lhu	a1,100(sp)
    23f0:	300060ef          	jal	86f0 <crcu16>
    23f4:	00050793          	mv	a5,a0
    23f8:	fff00593          	li	a1,-1
    23fc:	000c0513          	mv	a0,s8
    2400:	06f11223          	sh	a5,100(sp)
    2404:	80cfe0ef          	jal	410 <core_bench_list>
    2408:	06415583          	lhu	a1,100(sp)
    240c:	2e4060ef          	jal	86f0 <crcu16>
    2410:	00050793          	mv	a5,a0
    2414:	00100593          	li	a1,1
    2418:	06f11223          	sh	a5,100(sp)
    241c:	000c0513          	mv	a0,s8
    2420:	00bc8a33          	add	s4,s9,a1
    2424:	000c9463          	bnez	s9,242c <main+0x2fc>
    2428:	06f11323          	sh	a5,102(sp)
    242c:	fe5fd0ef          	jal	410 <core_bench_list>
    2430:	06415583          	lhu	a1,100(sp)
    2434:	002c8d93          	addi	s11,s9,2
    2438:	2b8060ef          	jal	86f0 <crcu16>
    243c:	00050793          	mv	a5,a0
    2440:	fff00593          	li	a1,-1
    2444:	000c0513          	mv	a0,s8
    2448:	06f11223          	sh	a5,100(sp)
    244c:	fc5fd0ef          	jal	410 <core_bench_list>
    2450:	06415583          	lhu	a1,100(sp)
    2454:	29c060ef          	jal	86f0 <crcu16>
    2458:	00050793          	mv	a5,a0
    245c:	06f11223          	sh	a5,100(sp)
    2460:	00100593          	li	a1,1
    2464:	000c0513          	mv	a0,s8
    2468:	000a1463          	bnez	s4,2470 <main+0x340>
    246c:	06f11323          	sh	a5,102(sp)
    2470:	fa1fd0ef          	jal	410 <core_bench_list>
    2474:	06415583          	lhu	a1,100(sp)
    2478:	278060ef          	jal	86f0 <crcu16>
    247c:	00050793          	mv	a5,a0
    2480:	fff00593          	li	a1,-1
    2484:	000c0513          	mv	a0,s8
    2488:	06f11223          	sh	a5,100(sp)
    248c:	f85fd0ef          	jal	410 <core_bench_list>
    2490:	06415583          	lhu	a1,100(sp)
    2494:	25c060ef          	jal	86f0 <crcu16>
    2498:	06a11223          	sh	a0,100(sp)
    249c:	000d9463          	bnez	s11,24a4 <main+0x374>
    24a0:	06a11323          	sh	a0,102(sp)
    24a4:	003c8d93          	addi	s11,s9,3
    24a8:	efbd1ae3          	bne	s10,s11,239c <main+0x26c>
    24ac:	3b5060ef          	jal	9060 <stop_time>
    24b0:	3c1060ef          	jal	9070 <get_time>
    24b4:	3dd060ef          	jal	9090 <time_in_secs>
    24b8:	00040613          	mv	a2,s0
    24bc:	00048693          	mv	a3,s1
    24c0:	00050d13          	mv	s10,a0
    24c4:	00058c93          	mv	s9,a1
    24c8:	799130ef          	jal	16460 <__ledf2>
    24cc:	dc0548e3          	bltz	a0,229c <main+0x16c>
    24d0:	000d0513          	mv	a0,s10
    24d4:	000c8593          	mv	a1,s9
    24d8:	65d140ef          	jal	17334 <__fixunsdfsi>
    24dc:	00051463          	bnez	a0,24e4 <main+0x3b4>
    24e0:	00100513          	li	a0,1
    24e4:	00a00793          	li	a5,10
    24e8:	02a7d7b3          	divu	a5,a5,a0
    24ec:	04812703          	lw	a4,72(sp)
    24f0:	00178793          	addi	a5,a5,1
    24f4:	02e787b3          	mul	a5,a5,a4
    24f8:	04f12423          	sw	a5,72(sp)
    24fc:	355060ef          	jal	9050 <start_time>
    2500:	02c10513          	addi	a0,sp,44
    2504:	9ddff0ef          	jal	1ee0 <iterate>
    2508:	359060ef          	jal	9060 <stop_time>
    250c:	365060ef          	jal	9070 <get_time>
    2510:	00050c13          	mv	s8,a0
    2514:	02c11503          	lh	a0,44(sp)
    2518:	00000593          	li	a1,0
    251c:	0c5060ef          	jal	8de0 <crc16>
    2520:	00050593          	mv	a1,a0
    2524:	02e11503          	lh	a0,46(sp)
    2528:	0b9060ef          	jal	8de0 <crc16>
    252c:	00050593          	mv	a1,a0
    2530:	03011503          	lh	a0,48(sp)
    2534:	0ad060ef          	jal	8de0 <crc16>
    2538:	00050593          	mv	a1,a0
    253c:	04411503          	lh	a0,68(sp)
    2540:	0a1060ef          	jal	8de0 <crc16>
    2544:	000087b7          	lui	a5,0x8
    2548:	b0578793          	addi	a5,a5,-1275 # 7b05 <core_bench_state+0x6a5>
    254c:	00050493          	mv	s1,a0
    2550:	68f50063          	beq	a0,a5,2bd0 <main+0xaa0>
    2554:	1ea7e263          	bltu	a5,a0,2738 <main+0x608>
    2558:	000027b7          	lui	a5,0x2
    255c:	8f278793          	addi	a5,a5,-1806 # 18f2 <core_list_insert_new+0x32>
    2560:	64f50e63          	beq	a0,a5,2bbc <main+0xa8c>
    2564:	000057b7          	lui	a5,0x5
    2568:	eaf78793          	addi	a5,a5,-337 # 4eaf <matrix_test+0x7bf>
    256c:	22f51063          	bne	a0,a5,278c <main+0x65c>
    2570:	0001a537          	lui	a0,0x1a
    2574:	5a850513          	addi	a0,a0,1448 # 1a5a8 <__malloc_trim_threshold+0x5c>
    2578:	515060ef          	jal	928c <puts>
    257c:	00200c93          	li	s9,2
    2580:	0001adb7          	lui	s11,0x1a
    2584:	538da783          	lw	a5,1336(s11) # 1a538 <default_num_contexts>
    2588:	64078e63          	beqz	a5,2be4 <main+0xab4>
    258c:	0001b8b7          	lui	a7,0x1b
    2590:	d4888893          	addi	a7,a7,-696 # 1ad48 <list_known_crc>
    2594:	001c9793          	slli	a5,s9,0x1
    2598:	00000b13          	li	s6,0
    259c:	00000a93          	li	s5,0
    25a0:	84010413          	addi	s0,sp,-1984
    25a4:	00001a37          	lui	s4,0x1
    25a8:	00f88bb3          	add	s7,a7,a5
    25ac:	0001a9b7          	lui	s3,0x1a
    25b0:	0380006f          	j	25e8 <main+0x4b8>
    25b4:	015907b3          	add	a5,s2,s5
    25b8:	00279793          	slli	a5,a5,0x2
    25bc:	00f407b3          	add	a5,s0,a5
    25c0:	00fa07b3          	add	a5,s4,a5
    25c4:	82c79783          	lh	a5,-2004(a5)
    25c8:	001a8593          	addi	a1,s5,1
    25cc:	538da683          	lw	a3,1336(s11)
    25d0:	016787b3          	add	a5,a5,s6
    25d4:	01059a93          	slli	s5,a1,0x10
    25d8:	01079b13          	slli	s6,a5,0x10
    25dc:	010ada93          	srli	s5,s5,0x10
    25e0:	410b5b13          	srai	s6,s6,0x10
    25e4:	1adafa63          	bgeu	s5,a3,2798 <main+0x668>
    25e8:	004a9913          	slli	s2,s5,0x4
    25ec:	01590d33          	add	s10,s2,s5
    25f0:	002d1d13          	slli	s10,s10,0x2
    25f4:	01a40d33          	add	s10,s0,s10
    25f8:	01aa0d33          	add	s10,s4,s10
    25fc:	80cd2783          	lw	a5,-2036(s10)
    2600:	820d1623          	sh	zero,-2004(s10)
    2604:	0017f693          	andi	a3,a5,1
    2608:	02068663          	beqz	a3,2634 <main+0x504>
    260c:	826d5603          	lhu	a2,-2010(s10)
    2610:	000bd683          	lhu	a3,0(s7)
    2614:	02d60063          	beq	a2,a3,2634 <main+0x504>
    2618:	000a8593          	mv	a1,s5
    261c:	63098513          	addi	a0,s3,1584 # 1a630 <__malloc_trim_threshold+0xe4>
    2620:	325060ef          	jal	9144 <printf>
    2624:	82cd5683          	lhu	a3,-2004(s10)
    2628:	80cd2783          	lw	a5,-2036(s10)
    262c:	00168693          	addi	a3,a3,1
    2630:	82dd1623          	sh	a3,-2004(s10)
    2634:	0027f693          	andi	a3,a5,2
    2638:	04068063          	beqz	a3,2678 <main+0x548>
    263c:	01590d33          	add	s10,s2,s5
    2640:	002d1d13          	slli	s10,s10,0x2
    2644:	01a40d33          	add	s10,s0,s10
    2648:	01aa0d33          	add	s10,s4,s10
    264c:	828d5603          	lhu	a2,-2008(s10)
    2650:	00cbd683          	lhu	a3,12(s7)
    2654:	02d60263          	beq	a2,a3,2678 <main+0x548>
    2658:	0001a537          	lui	a0,0x1a
    265c:	000a8593          	mv	a1,s5
    2660:	66050513          	addi	a0,a0,1632 # 1a660 <__malloc_trim_threshold+0x114>
    2664:	2e1060ef          	jal	9144 <printf>
    2668:	82cd5683          	lhu	a3,-2004(s10)
    266c:	80cd2783          	lw	a5,-2036(s10)
    2670:	00168693          	addi	a3,a3,1
    2674:	82dd1623          	sh	a3,-2004(s10)
    2678:	0047f793          	andi	a5,a5,4
    267c:	f2078ce3          	beqz	a5,25b4 <main+0x484>
    2680:	01590933          	add	s2,s2,s5
    2684:	00291913          	slli	s2,s2,0x2
    2688:	01240933          	add	s2,s0,s2
    268c:	012a0933          	add	s2,s4,s2
    2690:	82a95603          	lhu	a2,-2006(s2)
    2694:	018bd683          	lhu	a3,24(s7)
    2698:	3ed61863          	bne	a2,a3,2a88 <main+0x958>
    269c:	82c91783          	lh	a5,-2004(s2)
    26a0:	f29ff06f          	j	25c8 <main+0x498>
    26a4:	7f079703          	lh	a4,2032(a5)
    26a8:	b40714e3          	bnez	a4,21f0 <main+0xc0>
    26ac:	06600713          	li	a4,102
    26b0:	7ee79823          	sh	a4,2032(a5)
    26b4:	b3dff06f          	j	21f0 <main+0xc0>
    26b8:	00457513          	andi	a0,a0,4
    26bc:	00178593          	addi	a1,a5,1
    26c0:	b4051ae3          	bnez	a0,2214 <main+0xe4>
    26c4:	7d000713          	li	a4,2000
    26c8:	02b75733          	divu	a4,a4,a1
    26cc:	04e12223          	sw	a4,68(sp)
    26d0:	02079863          	bnez	a5,2700 <main+0x5d0>
    26d4:	02e787b3          	mul	a5,a5,a4
    26d8:	00f687b3          	add	a5,a3,a5
    26dc:	02f12e23          	sw	a5,60(sp)
    26e0:	b4050ce3          	beqz	a0,2238 <main+0x108>
    26e4:	b49ff06f          	j	222c <main+0xfc>
    26e8:	06a11323          	sh	a0,102(sp)
    26ec:	c69ff06f          	j	2354 <main+0x224>
    26f0:	7d000713          	li	a4,2000
    26f4:	04e12223          	sw	a4,68(sp)
    26f8:	b40780e3          	beqz	a5,2238 <main+0x108>
    26fc:	00078593          	mv	a1,a5
    2700:	02d12c23          	sw	a3,56(sp)
    2704:	b2060ae3          	beqz	a2,2238 <main+0x108>
    2708:	00000513          	li	a0,0
    270c:	fc9ff06f          	j	26d4 <main+0x5a4>
    2710:	02e11703          	lh	a4,46(sp)
    2714:	02c11603          	lh	a2,44(sp)
    2718:	03c12583          	lw	a1,60(sp)
    271c:	04412503          	lw	a0,68(sp)
    2720:	01071713          	slli	a4,a4,0x10
    2724:	05410693          	addi	a3,sp,84
    2728:	00c76633          	or	a2,a4,a2
    272c:	2d5030ef          	jal	6200 <core_init_matrix>
    2730:	04c12783          	lw	a5,76(sp)
    2734:	b31ff06f          	j	2264 <main+0x134>
    2738:	000097b7          	lui	a5,0x9
    273c:	a0278793          	addi	a5,a5,-1534 # 8a02 <crcu32+0xc2>
    2740:	46f50463          	beq	a0,a5,2ba8 <main+0xa78>
    2744:	0000f7b7          	lui	a5,0xf
    2748:	9f578793          	addi	a5,a5,-1547 # e9f5 <_ldcheck+0xa1>
    274c:	32f51663          	bne	a0,a5,2a78 <main+0x948>
    2750:	0001a537          	lui	a0,0x1a
    2754:	5d850513          	addi	a0,a0,1496 # 1a5d8 <__malloc_trim_threshold+0x8c>
    2758:	335060ef          	jal	928c <puts>
    275c:	00300c93          	li	s9,3
    2760:	e21ff06f          	j	2580 <main+0x450>
    2764:	34153737          	lui	a4,0x34153
    2768:	06600693          	li	a3,102
    276c:	41570713          	addi	a4,a4,1045 # 34153415 <_stack+0x34133705>
    2770:	7ee7a623          	sw	a4,2028(a5)
    2774:	7ed79823          	sh	a3,2032(a5)
    2778:	a79ff06f          	j	21f0 <main+0xc0>
    277c:	02d12c23          	sw	a3,56(sp)
    2780:	aa0606e3          	beqz	a2,222c <main+0xfc>
    2784:	00400513          	li	a0,4
    2788:	f4dff06f          	j	26d4 <main+0x5a4>
    278c:	fff00c93          	li	s9,-1
    2790:	000c8b13          	mv	s6,s9
    2794:	0001adb7          	lui	s11,0x1a
    2798:	0a9060ef          	jal	9040 <check_data_types>
    279c:	04412583          	lw	a1,68(sp)
    27a0:	0001a7b7          	lui	a5,0x1a
    27a4:	00ab0433          	add	s0,s6,a0
    27a8:	6c478513          	addi	a0,a5,1732 # 1a6c4 <__malloc_trim_threshold+0x178>
    27ac:	199060ef          	jal	9144 <printf>
    27b0:	0001a537          	lui	a0,0x1a
    27b4:	000c0593          	mv	a1,s8
    27b8:	6dc50513          	addi	a0,a0,1756 # 1a6dc <__malloc_trim_threshold+0x190>
    27bc:	189060ef          	jal	9144 <printf>
    27c0:	000c0513          	mv	a0,s8
    27c4:	0cd060ef          	jal	9090 <time_in_secs>
    27c8:	00050613          	mv	a2,a0
    27cc:	0001a537          	lui	a0,0x1a
    27d0:	00058693          	mv	a3,a1
    27d4:	6f450513          	addi	a0,a0,1780 # 1a6f4 <__malloc_trim_threshold+0x1a8>
    27d8:	16d060ef          	jal	9144 <printf>
    27dc:	000c0513          	mv	a0,s8
    27e0:	0b1060ef          	jal	9090 <time_in_secs>
    27e4:	04812983          	lw	s3,72(sp)
    27e8:	538da903          	lw	s2,1336(s11) # 1a538 <default_num_contexts>
    27ec:	01041413          	slli	s0,s0,0x10
    27f0:	00000613          	li	a2,0
    27f4:	00000693          	li	a3,0
    27f8:	03298933          	mul	s2,s3,s2
    27fc:	41045413          	srai	s0,s0,0x10
    2800:	391130ef          	jal	16390 <__gedf2>
    2804:	04a05863          	blez	a0,2854 <main+0x724>
    2808:	00090513          	mv	a0,s2
    280c:	459140ef          	jal	17464 <__floatunsidf>
    2810:	00050993          	mv	s3,a0
    2814:	00058913          	mv	s2,a1
    2818:	000c0513          	mv	a0,s8
    281c:	075060ef          	jal	9090 <time_in_secs>
    2820:	01312423          	sw	s3,8(sp)
    2824:	01212623          	sw	s2,12(sp)
    2828:	00050613          	mv	a2,a0
    282c:	00058693          	mv	a3,a1
    2830:	00812503          	lw	a0,8(sp)
    2834:	00c12583          	lw	a1,12(sp)
    2838:	410130ef          	jal	15c48 <__divdf3>
    283c:	00050613          	mv	a2,a0
    2840:	0001a537          	lui	a0,0x1a
    2844:	00058693          	mv	a3,a1
    2848:	70c50513          	addi	a0,a0,1804 # 1a70c <__malloc_trim_threshold+0x1c0>
    284c:	0f9060ef          	jal	9144 <printf>
    2850:	04812983          	lw	s3,72(sp)
    2854:	538da583          	lw	a1,1336(s11)
    2858:	0001a537          	lui	a0,0x1a
    285c:	72450513          	addi	a0,a0,1828 # 1a724 <__malloc_trim_threshold+0x1d8>
    2860:	02b985b3          	mul	a1,s3,a1
    2864:	0001aab7          	lui	s5,0x1a
    2868:	0001ad37          	lui	s10,0x1a
    286c:	0001ba37          	lui	s4,0x1b
    2870:	0d5060ef          	jal	9144 <printf>
    2874:	0001a537          	lui	a0,0x1a
    2878:	73ca8593          	addi	a1,s5,1852 # 1a73c <__malloc_trim_threshold+0x1f0>
    287c:	74850513          	addi	a0,a0,1864 # 1a748 <__malloc_trim_threshold+0x1fc>
    2880:	0c5060ef          	jal	9144 <printf>
    2884:	0001b537          	lui	a0,0x1b
    2888:	760d0593          	addi	a1,s10,1888 # 1a760 <__malloc_trim_threshold+0x214>
    288c:	96850513          	addi	a0,a0,-1688 # 1a968 <__malloc_trim_threshold+0x41c>
    2890:	0b5060ef          	jal	9144 <printf>
    2894:	0001b537          	lui	a0,0x1b
    2898:	980a0593          	addi	a1,s4,-1664 # 1a980 <__malloc_trim_threshold+0x434>
    289c:	98850513          	addi	a0,a0,-1656 # 1a988 <__malloc_trim_threshold+0x43c>
    28a0:	0a5060ef          	jal	9144 <printf>
    28a4:	0001b537          	lui	a0,0x1b
    28a8:	00048593          	mv	a1,s1
    28ac:	9a050513          	addi	a0,a0,-1632 # 1a9a0 <__malloc_trim_threshold+0x454>
    28b0:	095060ef          	jal	9144 <printf>
    28b4:	04c12783          	lw	a5,76(sp)
    28b8:	538da683          	lw	a3,1336(s11)
    28bc:	0017f713          	andi	a4,a5,1
    28c0:	04070a63          	beqz	a4,2914 <main+0x7e4>
    28c4:	04068863          	beqz	a3,2914 <main+0x7e4>
    28c8:	00000b13          	li	s6,0
    28cc:	84010493          	addi	s1,sp,-1984
    28d0:	000019b7          	lui	s3,0x1
    28d4:	0001b937          	lui	s2,0x1b
    28d8:	004b1793          	slli	a5,s6,0x4
    28dc:	016787b3          	add	a5,a5,s6
    28e0:	00279793          	slli	a5,a5,0x2
    28e4:	00f487b3          	add	a5,s1,a5
    28e8:	00f987b3          	add	a5,s3,a5
    28ec:	8267d603          	lhu	a2,-2010(a5)
    28f0:	000b0593          	mv	a1,s6
    28f4:	9bc90513          	addi	a0,s2,-1604 # 1a9bc <__malloc_trim_threshold+0x470>
    28f8:	04d060ef          	jal	9144 <printf>
    28fc:	001b0593          	addi	a1,s6,1
    2900:	538da783          	lw	a5,1336(s11)
    2904:	01059b13          	slli	s6,a1,0x10
    2908:	010b5b13          	srli	s6,s6,0x10
    290c:	fcfb66e3          	bltu	s6,a5,28d8 <main+0x7a8>
    2910:	04c12783          	lw	a5,76(sp)
    2914:	0027f713          	andi	a4,a5,2
    2918:	538da683          	lw	a3,1336(s11)
    291c:	04070a63          	beqz	a4,2970 <main+0x840>
    2920:	04068863          	beqz	a3,2970 <main+0x840>
    2924:	00000b13          	li	s6,0
    2928:	84010493          	addi	s1,sp,-1984
    292c:	000019b7          	lui	s3,0x1
    2930:	0001b937          	lui	s2,0x1b
    2934:	004b1793          	slli	a5,s6,0x4
    2938:	016787b3          	add	a5,a5,s6
    293c:	00279793          	slli	a5,a5,0x2
    2940:	00f487b3          	add	a5,s1,a5
    2944:	00f987b3          	add	a5,s3,a5
    2948:	8287d603          	lhu	a2,-2008(a5)
    294c:	000b0593          	mv	a1,s6
    2950:	9d890513          	addi	a0,s2,-1576 # 1a9d8 <__malloc_trim_threshold+0x48c>
    2954:	7f0060ef          	jal	9144 <printf>
    2958:	001b0593          	addi	a1,s6,1
    295c:	538da783          	lw	a5,1336(s11)
    2960:	01059b13          	slli	s6,a1,0x10
    2964:	010b5b13          	srli	s6,s6,0x10
    2968:	fcfb66e3          	bltu	s6,a5,2934 <main+0x804>
    296c:	04c12783          	lw	a5,76(sp)
    2970:	0047f793          	andi	a5,a5,4
    2974:	538da703          	lw	a4,1336(s11)
    2978:	04078863          	beqz	a5,29c8 <main+0x898>
    297c:	04070663          	beqz	a4,29c8 <main+0x898>
    2980:	00000b13          	li	s6,0
    2984:	84010493          	addi	s1,sp,-1984
    2988:	000019b7          	lui	s3,0x1
    298c:	0001b937          	lui	s2,0x1b
    2990:	004b1793          	slli	a5,s6,0x4
    2994:	016787b3          	add	a5,a5,s6
    2998:	00279793          	slli	a5,a5,0x2
    299c:	00f487b3          	add	a5,s1,a5
    29a0:	00f987b3          	add	a5,s3,a5
    29a4:	82a7d603          	lhu	a2,-2006(a5)
    29a8:	000b0593          	mv	a1,s6
    29ac:	9f490513          	addi	a0,s2,-1548 # 1a9f4 <__malloc_trim_threshold+0x4a8>
    29b0:	794060ef          	jal	9144 <printf>
    29b4:	001b0593          	addi	a1,s6,1
    29b8:	538da783          	lw	a5,1336(s11)
    29bc:	01059b13          	slli	s6,a1,0x10
    29c0:	010b5b13          	srli	s6,s6,0x10
    29c4:	fcfb66e3          	bltu	s6,a5,2990 <main+0x860>
    29c8:	538da783          	lw	a5,1336(s11)
    29cc:	00000b13          	li	s6,0
    29d0:	84010493          	addi	s1,sp,-1984
    29d4:	000019b7          	lui	s3,0x1
    29d8:	0001b937          	lui	s2,0x1b
    29dc:	02078e63          	beqz	a5,2a18 <main+0x8e8>
    29e0:	004b1793          	slli	a5,s6,0x4
    29e4:	016787b3          	add	a5,a5,s6
    29e8:	00279793          	slli	a5,a5,0x2
    29ec:	00f487b3          	add	a5,s1,a5
    29f0:	00f987b3          	add	a5,s3,a5
    29f4:	8247d603          	lhu	a2,-2012(a5)
    29f8:	000b0593          	mv	a1,s6
    29fc:	a1090513          	addi	a0,s2,-1520 # 1aa10 <__malloc_trim_threshold+0x4c4>
    2a00:	744060ef          	jal	9144 <printf>
    2a04:	001b0593          	addi	a1,s6,1
    2a08:	538da783          	lw	a5,1336(s11)
    2a0c:	01059b13          	slli	s6,a1,0x10
    2a10:	010b5b13          	srli	s6,s6,0x10
    2a14:	fcfb66e3          	bltu	s6,a5,29e0 <main+0x8b0>
    2a18:	0a040463          	beqz	s0,2ac0 <main+0x990>
    2a1c:	08804a63          	bgtz	s0,2ab0 <main+0x980>
    2a20:	0001b537          	lui	a0,0x1b
    2a24:	aac50513          	addi	a0,a0,-1364 # 1aaac <__malloc_trim_threshold+0x560>
    2a28:	065060ef          	jal	928c <puts>
    2a2c:	06e10513          	addi	a0,sp,110
    2a30:	6a0060ef          	jal	90d0 <portable_fini>
    2a34:	09010113          	addi	sp,sp,144
    2a38:	7ec12083          	lw	ra,2028(sp)
    2a3c:	7e812403          	lw	s0,2024(sp)
    2a40:	7e412483          	lw	s1,2020(sp)
    2a44:	7e012903          	lw	s2,2016(sp)
    2a48:	7dc12983          	lw	s3,2012(sp)
    2a4c:	7d812a03          	lw	s4,2008(sp)
    2a50:	7d412a83          	lw	s5,2004(sp)
    2a54:	7d012b03          	lw	s6,2000(sp)
    2a58:	7cc12b83          	lw	s7,1996(sp)
    2a5c:	7c812c03          	lw	s8,1992(sp)
    2a60:	7c412c83          	lw	s9,1988(sp)
    2a64:	7c012d03          	lw	s10,1984(sp)
    2a68:	7bc12d83          	lw	s11,1980(sp)
    2a6c:	00000513          	li	a0,0
    2a70:	7f010113          	addi	sp,sp,2032
    2a74:	00008067          	ret
    2a78:	fff00c93          	li	s9,-1
    2a7c:	000c8b13          	mv	s6,s9
    2a80:	0001adb7          	lui	s11,0x1a
    2a84:	d15ff06f          	j	2798 <main+0x668>
    2a88:	0001a537          	lui	a0,0x1a
    2a8c:	000a8593          	mv	a1,s5
    2a90:	69450513          	addi	a0,a0,1684 # 1a694 <__malloc_trim_threshold+0x148>
    2a94:	6b0060ef          	jal	9144 <printf>
    2a98:	82c95783          	lhu	a5,-2004(s2)
    2a9c:	00178793          	addi	a5,a5,1
    2aa0:	01079793          	slli	a5,a5,0x10
    2aa4:	4107d793          	srai	a5,a5,0x10
    2aa8:	82f91623          	sh	a5,-2004(s2)
    2aac:	b1dff06f          	j	25c8 <main+0x498>
    2ab0:	0001b537          	lui	a0,0x1b
    2ab4:	b1050513          	addi	a0,a0,-1264 # 1ab10 <__malloc_trim_threshold+0x5c4>
    2ab8:	7d4060ef          	jal	928c <puts>
    2abc:	f71ff06f          	j	2a2c <main+0x8fc>
    2ac0:	0001b537          	lui	a0,0x1b
    2ac4:	a2c50513          	addi	a0,a0,-1492 # 1aa2c <__malloc_trim_threshold+0x4e0>
    2ac8:	7c4060ef          	jal	928c <puts>
    2acc:	00300793          	li	a5,3
    2ad0:	f4fc9ee3          	bne	s9,a5,2a2c <main+0x8fc>
    2ad4:	538da783          	lw	a5,1336(s11) # 1a538 <default_num_contexts>
    2ad8:	04812503          	lw	a0,72(sp)
    2adc:	02f50533          	mul	a0,a0,a5
    2ae0:	185140ef          	jal	17464 <__floatunsidf>
    2ae4:	00050493          	mv	s1,a0
    2ae8:	00058413          	mv	s0,a1
    2aec:	000c0513          	mv	a0,s8
    2af0:	5a0060ef          	jal	9090 <time_in_secs>
    2af4:	00912823          	sw	s1,16(sp)
    2af8:	00812a23          	sw	s0,20(sp)
    2afc:	00050613          	mv	a2,a0
    2b00:	00058693          	mv	a3,a1
    2b04:	01012503          	lw	a0,16(sp)
    2b08:	01412583          	lw	a1,20(sp)
    2b0c:	13c130ef          	jal	15c48 <__divdf3>
    2b10:	00050613          	mv	a2,a0
    2b14:	0001b537          	lui	a0,0x1b
    2b18:	73ca8713          	addi	a4,s5,1852
    2b1c:	00058693          	mv	a3,a1
    2b20:	760d0793          	addi	a5,s10,1888
    2b24:	a7450513          	addi	a0,a0,-1420 # 1aa74 <__malloc_trim_threshold+0x528>
    2b28:	61c060ef          	jal	9144 <printf>
    2b2c:	0001b537          	lui	a0,0x1b
    2b30:	980a0593          	addi	a1,s4,-1664
    2b34:	a9050513          	addi	a0,a0,-1392 # 1aa90 <__malloc_trim_threshold+0x544>
    2b38:	60c060ef          	jal	9144 <printf>
    2b3c:	00a00513          	li	a0,10
    2b40:	65c060ef          	jal	919c <putchar>
    2b44:	538da783          	lw	a5,1336(s11)
    2b48:	04812503          	lw	a0,72(sp)
    2b4c:	02f50533          	mul	a0,a0,a5
    2b50:	115140ef          	jal	17464 <__floatunsidf>
    2b54:	00050493          	mv	s1,a0
    2b58:	00058413          	mv	s0,a1
    2b5c:	000c0513          	mv	a0,s8
    2b60:	530060ef          	jal	9090 <time_in_secs>
    2b64:	00912c23          	sw	s1,24(sp)
    2b68:	00812e23          	sw	s0,28(sp)
    2b6c:	00050613          	mv	a2,a0
    2b70:	00058693          	mv	a3,a1
    2b74:	01812503          	lw	a0,24(sp)
    2b78:	01c12583          	lw	a1,28(sp)
    2b7c:	0cc130ef          	jal	15c48 <__divdf3>
    2b80:	0001a7b7          	lui	a5,0x1a
    2b84:	4d07a603          	lw	a2,1232(a5) # 1a4d0 <__DTOR_END__+0x8>
    2b88:	4d47a683          	lw	a3,1236(a5)
    2b8c:	0bc130ef          	jal	15c48 <__divdf3>
    2b90:	00050613          	mv	a2,a0
    2b94:	0001b537          	lui	a0,0x1b
    2b98:	00058693          	mv	a3,a1
    2b9c:	a9850513          	addi	a0,a0,-1384 # 1aa98 <__malloc_trim_threshold+0x54c>
    2ba0:	5a4060ef          	jal	9144 <printf>
    2ba4:	e89ff06f          	j	2a2c <main+0x8fc>
    2ba8:	0001a537          	lui	a0,0x1a
    2bac:	55050513          	addi	a0,a0,1360 # 1a550 <__malloc_trim_threshold+0x4>
    2bb0:	6dc060ef          	jal	928c <puts>
    2bb4:	00000c93          	li	s9,0
    2bb8:	9c9ff06f          	j	2580 <main+0x450>
    2bbc:	0001a537          	lui	a0,0x1a
    2bc0:	60450513          	addi	a0,a0,1540 # 1a604 <__malloc_trim_threshold+0xb8>
    2bc4:	6c8060ef          	jal	928c <puts>
    2bc8:	00400c93          	li	s9,4
    2bcc:	9b5ff06f          	j	2580 <main+0x450>
    2bd0:	0001a537          	lui	a0,0x1a
    2bd4:	57c50513          	addi	a0,a0,1404 # 1a57c <__malloc_trim_threshold+0x30>
    2bd8:	6b4060ef          	jal	928c <puts>
    2bdc:	00100c93          	li	s9,1
    2be0:	9a1ff06f          	j	2580 <main+0x450>
    2be4:	00000b13          	li	s6,0
    2be8:	bb1ff06f          	j	2798 <main+0x668>
    2bec:	0000                	.insn	2, 0x
	...

00002bf0 <core_bench_matrix>:
    2bf0:	fa010113          	addi	sp,sp,-96
    2bf4:	04812c23          	sw	s0,88(sp)
    2bf8:	00052403          	lw	s0,0(a0)
    2bfc:	05212823          	sw	s2,80(sp)
    2c00:	03712e23          	sw	s7,60(sp)
    2c04:	03812c23          	sw	s8,56(sp)
    2c08:	03912a23          	sw	s9,52(sp)
    2c0c:	fffff937          	lui	s2,0xfffff
    2c10:	04112e23          	sw	ra,92(sp)
    2c14:	00c12e23          	sw	a2,28(sp)
    2c18:	00c52c03          	lw	s8,12(a0)
    2c1c:	00452c83          	lw	s9,4(a0)
    2c20:	00852b83          	lw	s7,8(a0)
    2c24:	0125e933          	or	s2,a1,s2
    2c28:	00041463          	bnez	s0,2c30 <core_bench_matrix+0x40>
    2c2c:	2890106f          	j	46b4 <core_bench_matrix+0x1ac4>
    2c30:	04912a23          	sw	s1,84(sp)
    2c34:	00141493          	slli	s1,s0,0x1
    2c38:	05312623          	sw	s3,76(sp)
    2c3c:	05512223          	sw	s5,68(sp)
    2c40:	00058993          	mv	s3,a1
    2c44:	40800ab3          	neg	s5,s0
    2c48:	009c85b3          	add	a1,s9,s1
    2c4c:	05412423          	sw	s4,72(sp)
    2c50:	05612023          	sw	s6,64(sp)
    2c54:	03a12823          	sw	s10,48(sp)
    2c58:	03b12623          	sw	s11,44(sp)
    2c5c:	00058693          	mv	a3,a1
    2c60:	00000e93          	li	t4,0
    2c64:	002a9513          	slli	a0,s5,0x2
    2c68:	40968633          	sub	a2,a3,s1
    2c6c:	40c68733          	sub	a4,a3,a2
    2c70:	ffe70713          	addi	a4,a4,-2
    2c74:	00175713          	srli	a4,a4,0x1
    2c78:	00170713          	addi	a4,a4,1
    2c7c:	00777713          	andi	a4,a4,7
    2c80:	00060793          	mv	a5,a2
    2c84:	0a070463          	beqz	a4,2d2c <core_bench_matrix+0x13c>
    2c88:	00100813          	li	a6,1
    2c8c:	09070663          	beq	a4,a6,2d18 <core_bench_matrix+0x128>
    2c90:	00200813          	li	a6,2
    2c94:	07070a63          	beq	a4,a6,2d08 <core_bench_matrix+0x118>
    2c98:	00300813          	li	a6,3
    2c9c:	05070e63          	beq	a4,a6,2cf8 <core_bench_matrix+0x108>
    2ca0:	00400813          	li	a6,4
    2ca4:	05070263          	beq	a4,a6,2ce8 <core_bench_matrix+0xf8>
    2ca8:	00500813          	li	a6,5
    2cac:	03070663          	beq	a4,a6,2cd8 <core_bench_matrix+0xe8>
    2cb0:	00600813          	li	a6,6
    2cb4:	01070a63          	beq	a4,a6,2cc8 <core_bench_matrix+0xd8>
    2cb8:	00065703          	lhu	a4,0(a2)
    2cbc:	00260793          	addi	a5,a2,2
    2cc0:	00e98733          	add	a4,s3,a4
    2cc4:	00e61023          	sh	a4,0(a2)
    2cc8:	0007d703          	lhu	a4,0(a5)
    2ccc:	00278793          	addi	a5,a5,2
    2cd0:	00e98733          	add	a4,s3,a4
    2cd4:	fee79f23          	sh	a4,-2(a5)
    2cd8:	0007d703          	lhu	a4,0(a5)
    2cdc:	00278793          	addi	a5,a5,2
    2ce0:	00e98733          	add	a4,s3,a4
    2ce4:	fee79f23          	sh	a4,-2(a5)
    2ce8:	0007d703          	lhu	a4,0(a5)
    2cec:	00278793          	addi	a5,a5,2
    2cf0:	00e98733          	add	a4,s3,a4
    2cf4:	fee79f23          	sh	a4,-2(a5)
    2cf8:	0007d703          	lhu	a4,0(a5)
    2cfc:	00278793          	addi	a5,a5,2
    2d00:	00e98733          	add	a4,s3,a4
    2d04:	fee79f23          	sh	a4,-2(a5)
    2d08:	0007d703          	lhu	a4,0(a5)
    2d0c:	00278793          	addi	a5,a5,2
    2d10:	00e98733          	add	a4,s3,a4
    2d14:	fee79f23          	sh	a4,-2(a5)
    2d18:	0007d703          	lhu	a4,0(a5)
    2d1c:	00278793          	addi	a5,a5,2
    2d20:	00e98733          	add	a4,s3,a4
    2d24:	fee79f23          	sh	a4,-2(a5)
    2d28:	06d78663          	beq	a5,a3,2d94 <core_bench_matrix+0x1a4>
    2d2c:	0007d283          	lhu	t0,0(a5)
    2d30:	0027df83          	lhu	t6,2(a5)
    2d34:	0047df03          	lhu	t5,4(a5)
    2d38:	0067de03          	lhu	t3,6(a5)
    2d3c:	0087d303          	lhu	t1,8(a5)
    2d40:	00a7d883          	lhu	a7,10(a5)
    2d44:	00c7d803          	lhu	a6,12(a5)
    2d48:	00e7d703          	lhu	a4,14(a5)
    2d4c:	005982b3          	add	t0,s3,t0
    2d50:	01f98fb3          	add	t6,s3,t6
    2d54:	01e98f33          	add	t5,s3,t5
    2d58:	01c98e33          	add	t3,s3,t3
    2d5c:	00698333          	add	t1,s3,t1
    2d60:	011988b3          	add	a7,s3,a7
    2d64:	01098833          	add	a6,s3,a6
    2d68:	00e98733          	add	a4,s3,a4
    2d6c:	00579023          	sh	t0,0(a5)
    2d70:	01f79123          	sh	t6,2(a5)
    2d74:	01e79223          	sh	t5,4(a5)
    2d78:	01c79323          	sh	t3,6(a5)
    2d7c:	00679423          	sh	t1,8(a5)
    2d80:	01179523          	sh	a7,10(a5)
    2d84:	01079623          	sh	a6,12(a5)
    2d88:	00e79723          	sh	a4,14(a5)
    2d8c:	01078793          	addi	a5,a5,16
    2d90:	f8d79ee3          	bne	a5,a3,2d2c <core_bench_matrix+0x13c>
    2d94:	001e8e93          	addi	t4,t4,1
    2d98:	40a606b3          	sub	a3,a2,a0
    2d9c:	edd416e3          	bne	s0,t4,2c68 <core_bench_matrix+0x78>
    2da0:	00000313          	li	t1,0
    2da4:	00000893          	li	a7,0
    2da8:	40958633          	sub	a2,a1,s1
    2dac:	40c58733          	sub	a4,a1,a2
    2db0:	ffe70713          	addi	a4,a4,-2
    2db4:	00175713          	srli	a4,a4,0x1
    2db8:	00170713          	addi	a4,a4,1
    2dbc:	00231793          	slli	a5,t1,0x2
    2dc0:	00777713          	andi	a4,a4,7
    2dc4:	00060693          	mv	a3,a2
    2dc8:	00fc07b3          	add	a5,s8,a5
    2dcc:	0c070263          	beqz	a4,2e90 <core_bench_matrix+0x2a0>
    2dd0:	00100813          	li	a6,1
    2dd4:	0b070263          	beq	a4,a6,2e78 <core_bench_matrix+0x288>
    2dd8:	00200813          	li	a6,2
    2ddc:	09070463          	beq	a4,a6,2e64 <core_bench_matrix+0x274>
    2de0:	00300813          	li	a6,3
    2de4:	07070663          	beq	a4,a6,2e50 <core_bench_matrix+0x260>
    2de8:	00400813          	li	a6,4
    2dec:	05070863          	beq	a4,a6,2e3c <core_bench_matrix+0x24c>
    2df0:	00500813          	li	a6,5
    2df4:	03070a63          	beq	a4,a6,2e28 <core_bench_matrix+0x238>
    2df8:	00600813          	li	a6,6
    2dfc:	01070c63          	beq	a4,a6,2e14 <core_bench_matrix+0x224>
    2e00:	00061703          	lh	a4,0(a2)
    2e04:	00260693          	addi	a3,a2,2
    2e08:	00478793          	addi	a5,a5,4
    2e0c:	03370733          	mul	a4,a4,s3
    2e10:	fee7ae23          	sw	a4,-4(a5)
    2e14:	00069703          	lh	a4,0(a3)
    2e18:	00478793          	addi	a5,a5,4
    2e1c:	00268693          	addi	a3,a3,2
    2e20:	03370733          	mul	a4,a4,s3
    2e24:	fee7ae23          	sw	a4,-4(a5)
    2e28:	00069703          	lh	a4,0(a3)
    2e2c:	00478793          	addi	a5,a5,4
    2e30:	00268693          	addi	a3,a3,2
    2e34:	03370733          	mul	a4,a4,s3
    2e38:	fee7ae23          	sw	a4,-4(a5)
    2e3c:	00069703          	lh	a4,0(a3)
    2e40:	00478793          	addi	a5,a5,4
    2e44:	00268693          	addi	a3,a3,2
    2e48:	03370733          	mul	a4,a4,s3
    2e4c:	fee7ae23          	sw	a4,-4(a5)
    2e50:	00069703          	lh	a4,0(a3)
    2e54:	00478793          	addi	a5,a5,4
    2e58:	00268693          	addi	a3,a3,2
    2e5c:	03370733          	mul	a4,a4,s3
    2e60:	fee7ae23          	sw	a4,-4(a5)
    2e64:	00069703          	lh	a4,0(a3)
    2e68:	00478793          	addi	a5,a5,4
    2e6c:	00268693          	addi	a3,a3,2
    2e70:	03370733          	mul	a4,a4,s3
    2e74:	fee7ae23          	sw	a4,-4(a5)
    2e78:	00069703          	lh	a4,0(a3)
    2e7c:	00268693          	addi	a3,a3,2
    2e80:	00478793          	addi	a5,a5,4
    2e84:	03370733          	mul	a4,a4,s3
    2e88:	fee7ae23          	sw	a4,-4(a5)
    2e8c:	06d58863          	beq	a1,a3,2efc <core_bench_matrix+0x30c>
    2e90:	00069383          	lh	t2,0(a3)
    2e94:	00269283          	lh	t0,2(a3)
    2e98:	00469f83          	lh	t6,4(a3)
    2e9c:	00669f03          	lh	t5,6(a3)
    2ea0:	00869e83          	lh	t4,8(a3)
    2ea4:	00a69e03          	lh	t3,10(a3)
    2ea8:	00c69803          	lh	a6,12(a3)
    2eac:	00e69703          	lh	a4,14(a3)
    2eb0:	033383b3          	mul	t2,t2,s3
    2eb4:	01068693          	addi	a3,a3,16
    2eb8:	02078793          	addi	a5,a5,32
    2ebc:	033282b3          	mul	t0,t0,s3
    2ec0:	fe77a023          	sw	t2,-32(a5)
    2ec4:	033f8fb3          	mul	t6,t6,s3
    2ec8:	fe57a223          	sw	t0,-28(a5)
    2ecc:	033f0f33          	mul	t5,t5,s3
    2ed0:	fff7a423          	sw	t6,-24(a5)
    2ed4:	033e8eb3          	mul	t4,t4,s3
    2ed8:	ffe7a623          	sw	t5,-20(a5)
    2edc:	033e0e33          	mul	t3,t3,s3
    2ee0:	ffd7a823          	sw	t4,-16(a5)
    2ee4:	03380833          	mul	a6,a6,s3
    2ee8:	ffc7aa23          	sw	t3,-12(a5)
    2eec:	03370733          	mul	a4,a4,s3
    2ef0:	ff07ac23          	sw	a6,-8(a5)
    2ef4:	fee7ae23          	sw	a4,-4(a5)
    2ef8:	f8d59ce3          	bne	a1,a3,2e90 <core_bench_matrix+0x2a0>
    2efc:	00188893          	addi	a7,a7,1
    2f00:	00830333          	add	t1,t1,s0
    2f04:	40a605b3          	sub	a1,a2,a0
    2f08:	eb1410e3          	bne	s0,a7,2da8 <core_bench_matrix+0x1b8>
    2f0c:	00241d13          	slli	s10,s0,0x2
    2f10:	01ac0a33          	add	s4,s8,s10
    2f14:	002a9b13          	slli	s6,s5,0x2
    2f18:	000a0713          	mv	a4,s4
    2f1c:	00000893          	li	a7,0
    2f20:	00000813          	li	a6,0
    2f24:	00000513          	li	a0,0
    2f28:	00000613          	li	a2,0
    2f2c:	003a9a93          	slli	s5,s5,0x3
    2f30:	00eb05b3          	add	a1,s6,a4
    2f34:	40b707b3          	sub	a5,a4,a1
    2f38:	ffc78793          	addi	a5,a5,-4
    2f3c:	0027d793          	srli	a5,a5,0x2
    2f40:	00178793          	addi	a5,a5,1
    2f44:	0077f793          	andi	a5,a5,7
    2f48:	00058693          	mv	a3,a1
    2f4c:	6a0784e3          	beqz	a5,3df4 <core_bench_matrix+0x1204>
    2f50:	00100313          	li	t1,1
    2f54:	10678e63          	beq	a5,t1,3070 <core_bench_matrix+0x480>
    2f58:	00200313          	li	t1,2
    2f5c:	0e678663          	beq	a5,t1,3048 <core_bench_matrix+0x458>
    2f60:	00300313          	li	t1,3
    2f64:	0a678e63          	beq	a5,t1,3020 <core_bench_matrix+0x430>
    2f68:	00400313          	li	t1,4
    2f6c:	08678663          	beq	a5,t1,2ff8 <core_bench_matrix+0x408>
    2f70:	00500313          	li	t1,5
    2f74:	04678e63          	beq	a5,t1,2fd0 <core_bench_matrix+0x3e0>
    2f78:	00600313          	li	t1,6
    2f7c:	02678663          	beq	a5,t1,2fa8 <core_bench_matrix+0x3b8>
    2f80:	00088793          	mv	a5,a7
    2f84:	0005a883          	lw	a7,0(a1)
    2f88:	01180833          	add	a6,a6,a7
    2f8c:	01095463          	bge	s2,a6,2f94 <core_bench_matrix+0x3a4>
    2f90:	6e80106f          	j	4678 <core_bench_matrix+0x1a88>
    2f94:	0117a7b3          	slt	a5,a5,a7
    2f98:	00f507b3          	add	a5,a0,a5
    2f9c:	01079513          	slli	a0,a5,0x10
    2fa0:	41055513          	srai	a0,a0,0x10
    2fa4:	00458693          	addi	a3,a1,4
    2fa8:	00088793          	mv	a5,a7
    2fac:	0006a883          	lw	a7,0(a3)
    2fb0:	01180833          	add	a6,a6,a7
    2fb4:	01095463          	bge	s2,a6,2fbc <core_bench_matrix+0x3cc>
    2fb8:	64c0106f          	j	4604 <core_bench_matrix+0x1a14>
    2fbc:	0117a7b3          	slt	a5,a5,a7
    2fc0:	00f507b3          	add	a5,a0,a5
    2fc4:	01079513          	slli	a0,a5,0x10
    2fc8:	41055513          	srai	a0,a0,0x10
    2fcc:	00468693          	addi	a3,a3,4
    2fd0:	00088793          	mv	a5,a7
    2fd4:	0006a883          	lw	a7,0(a3)
    2fd8:	01180833          	add	a6,a6,a7
    2fdc:	01095463          	bge	s2,a6,2fe4 <core_bench_matrix+0x3f4>
    2fe0:	5d40106f          	j	45b4 <core_bench_matrix+0x19c4>
    2fe4:	0117a7b3          	slt	a5,a5,a7
    2fe8:	00f507b3          	add	a5,a0,a5
    2fec:	01079513          	slli	a0,a5,0x10
    2ff0:	41055513          	srai	a0,a0,0x10
    2ff4:	00468693          	addi	a3,a3,4
    2ff8:	00088793          	mv	a5,a7
    2ffc:	0006a883          	lw	a7,0(a3)
    3000:	01180833          	add	a6,a6,a7
    3004:	01095463          	bge	s2,a6,300c <core_bench_matrix+0x41c>
    3008:	55c0106f          	j	4564 <core_bench_matrix+0x1974>
    300c:	0117a7b3          	slt	a5,a5,a7
    3010:	00f507b3          	add	a5,a0,a5
    3014:	01079513          	slli	a0,a5,0x10
    3018:	41055513          	srai	a0,a0,0x10
    301c:	00468693          	addi	a3,a3,4
    3020:	00088793          	mv	a5,a7
    3024:	0006a883          	lw	a7,0(a3)
    3028:	01180833          	add	a6,a6,a7
    302c:	01095463          	bge	s2,a6,3034 <core_bench_matrix+0x444>
    3030:	4f80106f          	j	4528 <core_bench_matrix+0x1938>
    3034:	0117a7b3          	slt	a5,a5,a7
    3038:	00f507b3          	add	a5,a0,a5
    303c:	01079513          	slli	a0,a5,0x10
    3040:	41055513          	srai	a0,a0,0x10
    3044:	00468693          	addi	a3,a3,4
    3048:	00088793          	mv	a5,a7
    304c:	0006a883          	lw	a7,0(a3)
    3050:	01180833          	add	a6,a6,a7
    3054:	01095463          	bge	s2,a6,305c <core_bench_matrix+0x46c>
    3058:	4800106f          	j	44d8 <core_bench_matrix+0x18e8>
    305c:	0117a7b3          	slt	a5,a5,a7
    3060:	00f507b3          	add	a5,a0,a5
    3064:	01079513          	slli	a0,a5,0x10
    3068:	41055513          	srai	a0,a0,0x10
    306c:	00468693          	addi	a3,a3,4
    3070:	00088793          	mv	a5,a7
    3074:	0006a883          	lw	a7,0(a3)
    3078:	01180833          	add	a6,a6,a7
    307c:	01095463          	bge	s2,a6,3084 <core_bench_matrix+0x494>
    3080:	3f40106f          	j	4474 <core_bench_matrix+0x1884>
    3084:	0117a7b3          	slt	a5,a5,a7
    3088:	00f507b3          	add	a5,a0,a5
    308c:	01079513          	slli	a0,a5,0x10
    3090:	41055513          	srai	a0,a0,0x10
    3094:	00468693          	addi	a3,a3,4
    3098:	54d71ee3          	bne	a4,a3,3df4 <core_bench_matrix+0x1204>
    309c:	00160613          	addi	a2,a2,1
    30a0:	41558733          	sub	a4,a1,s5
    30a4:	e8c416e3          	bne	s0,a2,2f30 <core_bench_matrix+0x340>
    30a8:	00000593          	li	a1,0
    30ac:	535050ef          	jal	8de0 <crc16>
    30b0:	000c0593          	mv	a1,s8
    30b4:	00000f13          	li	t5,0
    30b8:	009b8fb3          	add	t6,s7,s1
    30bc:	00a12823          	sw	a0,16(sp)
    30c0:	00912a23          	sw	s1,20(sp)
    30c4:	417f8733          	sub	a4,t6,s7
    30c8:	ffe70713          	addi	a4,a4,-2
    30cc:	00175713          	srli	a4,a4,0x1
    30d0:	00170713          	addi	a4,a4,1
    30d4:	001f1693          	slli	a3,t5,0x1
    30d8:	00777713          	andi	a4,a4,7
    30dc:	000b8613          	mv	a2,s7
    30e0:	00000793          	li	a5,0
    30e4:	019686b3          	add	a3,a3,s9
    30e8:	00071463          	bnez	a4,30f0 <core_bench_matrix+0x500>
    30ec:	5400106f          	j	462c <core_bench_matrix+0x1a3c>
    30f0:	00100513          	li	a0,1
    30f4:	0aa70c63          	beq	a4,a0,31ac <core_bench_matrix+0x5bc>
    30f8:	00200513          	li	a0,2
    30fc:	08a70c63          	beq	a4,a0,3194 <core_bench_matrix+0x5a4>
    3100:	00300513          	li	a0,3
    3104:	06a70c63          	beq	a4,a0,317c <core_bench_matrix+0x58c>
    3108:	00400513          	li	a0,4
    310c:	04a70c63          	beq	a4,a0,3164 <core_bench_matrix+0x574>
    3110:	00500513          	li	a0,5
    3114:	02a70c63          	beq	a4,a0,314c <core_bench_matrix+0x55c>
    3118:	00600513          	li	a0,6
    311c:	00a70c63          	beq	a4,a0,3134 <core_bench_matrix+0x544>
    3120:	00069783          	lh	a5,0(a3)
    3124:	000b9703          	lh	a4,0(s7)
    3128:	00268693          	addi	a3,a3,2
    312c:	002b8613          	addi	a2,s7,2
    3130:	02e787b3          	mul	a5,a5,a4
    3134:	00069703          	lh	a4,0(a3)
    3138:	00061503          	lh	a0,0(a2)
    313c:	00268693          	addi	a3,a3,2
    3140:	00260613          	addi	a2,a2,2
    3144:	02a70733          	mul	a4,a4,a0
    3148:	00e787b3          	add	a5,a5,a4
    314c:	00069703          	lh	a4,0(a3)
    3150:	00061503          	lh	a0,0(a2)
    3154:	00268693          	addi	a3,a3,2
    3158:	00260613          	addi	a2,a2,2
    315c:	02a70733          	mul	a4,a4,a0
    3160:	00e787b3          	add	a5,a5,a4
    3164:	00069703          	lh	a4,0(a3)
    3168:	00061503          	lh	a0,0(a2)
    316c:	00268693          	addi	a3,a3,2
    3170:	00260613          	addi	a2,a2,2
    3174:	02a70733          	mul	a4,a4,a0
    3178:	00e787b3          	add	a5,a5,a4
    317c:	00069703          	lh	a4,0(a3)
    3180:	00061503          	lh	a0,0(a2)
    3184:	00268693          	addi	a3,a3,2
    3188:	00260613          	addi	a2,a2,2
    318c:	02a70733          	mul	a4,a4,a0
    3190:	00e787b3          	add	a5,a5,a4
    3194:	00069703          	lh	a4,0(a3)
    3198:	00061503          	lh	a0,0(a2)
    319c:	00268693          	addi	a3,a3,2
    31a0:	00260613          	addi	a2,a2,2
    31a4:	02a70733          	mul	a4,a4,a0
    31a8:	00e787b3          	add	a5,a5,a4
    31ac:	00069703          	lh	a4,0(a3)
    31b0:	00061503          	lh	a0,0(a2)
    31b4:	00260613          	addi	a2,a2,2
    31b8:	00268693          	addi	a3,a3,2
    31bc:	02a70733          	mul	a4,a4,a0
    31c0:	00e787b3          	add	a5,a5,a4
    31c4:	0acf8463          	beq	t6,a2,326c <core_bench_matrix+0x67c>
    31c8:	00812223          	sw	s0,4(sp)
    31cc:	01e12423          	sw	t5,8(sp)
    31d0:	00b12623          	sw	a1,12(sp)
    31d4:	00061503          	lh	a0,0(a2)
    31d8:	00069703          	lh	a4,0(a3)
    31dc:	00269d83          	lh	s11,2(a3)
    31e0:	00261303          	lh	t1,2(a2)
    31e4:	00469883          	lh	a7,4(a3)
    31e8:	00461383          	lh	t2,4(a2)
    31ec:	02a70733          	mul	a4,a4,a0
    31f0:	00669803          	lh	a6,6(a3)
    31f4:	00661283          	lh	t0,6(a2)
    31f8:	00869483          	lh	s1,8(a3)
    31fc:	00861403          	lh	s0,8(a2)
    3200:	00a69f03          	lh	t5,10(a3)
    3204:	00a61e83          	lh	t4,10(a2)
    3208:	00c69583          	lh	a1,12(a3)
    320c:	00c61e03          	lh	t3,12(a2)
    3210:	00e69503          	lh	a0,14(a3)
    3214:	026d8333          	mul	t1,s11,t1
    3218:	00e78733          	add	a4,a5,a4
    321c:	00e61d83          	lh	s11,14(a2)
    3220:	01060613          	addi	a2,a2,16
    3224:	01068693          	addi	a3,a3,16
    3228:	027888b3          	mul	a7,a7,t2
    322c:	00670733          	add	a4,a4,t1
    3230:	02580833          	mul	a6,a6,t0
    3234:	011707b3          	add	a5,a4,a7
    3238:	02848733          	mul	a4,s1,s0
    323c:	010787b3          	add	a5,a5,a6
    3240:	03df0833          	mul	a6,t5,t4
    3244:	00e787b3          	add	a5,a5,a4
    3248:	03c58733          	mul	a4,a1,t3
    324c:	010787b3          	add	a5,a5,a6
    3250:	03b50533          	mul	a0,a0,s11
    3254:	00e787b3          	add	a5,a5,a4
    3258:	00a787b3          	add	a5,a5,a0
    325c:	f6cf9ce3          	bne	t6,a2,31d4 <core_bench_matrix+0x5e4>
    3260:	00412403          	lw	s0,4(sp)
    3264:	00812f03          	lw	t5,8(sp)
    3268:	00c12583          	lw	a1,12(sp)
    326c:	00f5a023          	sw	a5,0(a1)
    3270:	00458593          	addi	a1,a1,4
    3274:	008f0f33          	add	t5,t5,s0
    3278:	e4ba16e3          	bne	s4,a1,30c4 <core_bench_matrix+0x4d4>
    327c:	01012603          	lw	a2,16(sp)
    3280:	01412483          	lw	s1,20(sp)
    3284:	00000893          	li	a7,0
    3288:	00000813          	li	a6,0
    328c:	00000513          	li	a0,0
    3290:	00000693          	li	a3,0
    3294:	014b05b3          	add	a1,s6,s4
    3298:	40ba07b3          	sub	a5,s4,a1
    329c:	ffc78793          	addi	a5,a5,-4
    32a0:	0027d793          	srli	a5,a5,0x2
    32a4:	00178793          	addi	a5,a5,1
    32a8:	0077f793          	andi	a5,a5,7
    32ac:	00058713          	mv	a4,a1
    32b0:	500786e3          	beqz	a5,3fbc <core_bench_matrix+0x13cc>
    32b4:	00100313          	li	t1,1
    32b8:	10678e63          	beq	a5,t1,33d4 <core_bench_matrix+0x7e4>
    32bc:	00200313          	li	t1,2
    32c0:	0e678663          	beq	a5,t1,33ac <core_bench_matrix+0x7bc>
    32c4:	00300313          	li	t1,3
    32c8:	0a678e63          	beq	a5,t1,3384 <core_bench_matrix+0x794>
    32cc:	00400313          	li	t1,4
    32d0:	08678663          	beq	a5,t1,335c <core_bench_matrix+0x76c>
    32d4:	00500313          	li	t1,5
    32d8:	04678e63          	beq	a5,t1,3334 <core_bench_matrix+0x744>
    32dc:	00600313          	li	t1,6
    32e0:	02678663          	beq	a5,t1,330c <core_bench_matrix+0x71c>
    32e4:	00088793          	mv	a5,a7
    32e8:	0005a883          	lw	a7,0(a1)
    32ec:	01180833          	add	a6,a6,a7
    32f0:	01095463          	bge	s2,a6,32f8 <core_bench_matrix+0x708>
    32f4:	3700106f          	j	4664 <core_bench_matrix+0x1a74>
    32f8:	0117a7b3          	slt	a5,a5,a7
    32fc:	00f507b3          	add	a5,a0,a5
    3300:	01079513          	slli	a0,a5,0x10
    3304:	41055513          	srai	a0,a0,0x10
    3308:	00458713          	addi	a4,a1,4
    330c:	00088793          	mv	a5,a7
    3310:	00072883          	lw	a7,0(a4)
    3314:	01180833          	add	a6,a6,a7
    3318:	01095463          	bge	s2,a6,3320 <core_bench_matrix+0x730>
    331c:	2fc0106f          	j	4618 <core_bench_matrix+0x1a28>
    3320:	0117a7b3          	slt	a5,a5,a7
    3324:	00f507b3          	add	a5,a0,a5
    3328:	01079513          	slli	a0,a5,0x10
    332c:	41055513          	srai	a0,a0,0x10
    3330:	00470713          	addi	a4,a4,4
    3334:	00088793          	mv	a5,a7
    3338:	00072883          	lw	a7,0(a4)
    333c:	01180833          	add	a6,a6,a7
    3340:	01095463          	bge	s2,a6,3348 <core_bench_matrix+0x758>
    3344:	2840106f          	j	45c8 <core_bench_matrix+0x19d8>
    3348:	0117a7b3          	slt	a5,a5,a7
    334c:	00f507b3          	add	a5,a0,a5
    3350:	01079513          	slli	a0,a5,0x10
    3354:	41055513          	srai	a0,a0,0x10
    3358:	00470713          	addi	a4,a4,4
    335c:	00088793          	mv	a5,a7
    3360:	00072883          	lw	a7,0(a4)
    3364:	01180833          	add	a6,a6,a7
    3368:	01095463          	bge	s2,a6,3370 <core_bench_matrix+0x780>
    336c:	20c0106f          	j	4578 <core_bench_matrix+0x1988>
    3370:	0117a7b3          	slt	a5,a5,a7
    3374:	00f507b3          	add	a5,a0,a5
    3378:	01079513          	slli	a0,a5,0x10
    337c:	41055513          	srai	a0,a0,0x10
    3380:	00470713          	addi	a4,a4,4
    3384:	00088793          	mv	a5,a7
    3388:	00072883          	lw	a7,0(a4)
    338c:	01180833          	add	a6,a6,a7
    3390:	01095463          	bge	s2,a6,3398 <core_bench_matrix+0x7a8>
    3394:	1800106f          	j	4514 <core_bench_matrix+0x1924>
    3398:	0117a7b3          	slt	a5,a5,a7
    339c:	00f507b3          	add	a5,a0,a5
    33a0:	01079513          	slli	a0,a5,0x10
    33a4:	41055513          	srai	a0,a0,0x10
    33a8:	00470713          	addi	a4,a4,4
    33ac:	00088793          	mv	a5,a7
    33b0:	00072883          	lw	a7,0(a4)
    33b4:	01180833          	add	a6,a6,a7
    33b8:	01095463          	bge	s2,a6,33c0 <core_bench_matrix+0x7d0>
    33bc:	1080106f          	j	44c4 <core_bench_matrix+0x18d4>
    33c0:	0117a7b3          	slt	a5,a5,a7
    33c4:	00f507b3          	add	a5,a0,a5
    33c8:	01079513          	slli	a0,a5,0x10
    33cc:	41055513          	srai	a0,a0,0x10
    33d0:	00470713          	addi	a4,a4,4
    33d4:	00088793          	mv	a5,a7
    33d8:	00072883          	lw	a7,0(a4)
    33dc:	01180833          	add	a6,a6,a7
    33e0:	01095463          	bge	s2,a6,33e8 <core_bench_matrix+0x7f8>
    33e4:	0a40106f          	j	4488 <core_bench_matrix+0x1898>
    33e8:	0117a7b3          	slt	a5,a5,a7
    33ec:	00f507b3          	add	a5,a0,a5
    33f0:	01079513          	slli	a0,a5,0x10
    33f4:	41055513          	srai	a0,a0,0x10
    33f8:	00470713          	addi	a4,a4,4
    33fc:	3cea10e3          	bne	s4,a4,3fbc <core_bench_matrix+0x13cc>
    3400:	00168693          	addi	a3,a3,1
    3404:	41558a33          	sub	s4,a1,s5
    3408:	e8d416e3          	bne	s0,a3,3294 <core_bench_matrix+0x6a4>
    340c:	00060593          	mv	a1,a2
    3410:	1d1050ef          	jal	8de0 <crc16>
    3414:	000c8813          	mv	a6,s9
    3418:	00000713          	li	a4,0
    341c:	00000a13          	li	s4,0
    3420:	009c88b3          	add	a7,s9,s1
    3424:	00050693          	mv	a3,a0
    3428:	00271593          	slli	a1,a4,0x2
    342c:	000b8513          	mv	a0,s7
    3430:	00000313          	li	t1,0
    3434:	00bc05b3          	add	a1,s8,a1
    3438:	00068b13          	mv	s6,a3
    343c:	000a0a93          	mv	s5,s4
    3440:	41088e33          	sub	t3,a7,a6
    3444:	ffee0e13          	addi	t3,t3,-2
    3448:	001e5e13          	srli	t3,t3,0x1
    344c:	001e0e13          	addi	t3,t3,1
    3450:	007e7e13          	andi	t3,t3,7
    3454:	00050793          	mv	a5,a0
    3458:	00080693          	mv	a3,a6
    345c:	00000613          	li	a2,0
    3460:	0c0e0e63          	beqz	t3,353c <core_bench_matrix+0x94c>
    3464:	00100e93          	li	t4,1
    3468:	0bde0c63          	beq	t3,t4,3520 <core_bench_matrix+0x930>
    346c:	00200e93          	li	t4,2
    3470:	09de0c63          	beq	t3,t4,3508 <core_bench_matrix+0x918>
    3474:	00300e93          	li	t4,3
    3478:	07de0c63          	beq	t3,t4,34f0 <core_bench_matrix+0x900>
    347c:	00400e93          	li	t4,4
    3480:	05de0c63          	beq	t3,t4,34d8 <core_bench_matrix+0x8e8>
    3484:	00500e93          	li	t4,5
    3488:	03de0c63          	beq	t3,t4,34c0 <core_bench_matrix+0x8d0>
    348c:	00600e93          	li	t4,6
    3490:	01de0c63          	beq	t3,t4,34a8 <core_bench_matrix+0x8b8>
    3494:	00081603          	lh	a2,0(a6)
    3498:	00051e03          	lh	t3,0(a0)
    349c:	00280693          	addi	a3,a6,2
    34a0:	009507b3          	add	a5,a0,s1
    34a4:	03c60633          	mul	a2,a2,t3
    34a8:	00069e03          	lh	t3,0(a3)
    34ac:	00079e83          	lh	t4,0(a5)
    34b0:	00268693          	addi	a3,a3,2
    34b4:	009787b3          	add	a5,a5,s1
    34b8:	03de0e33          	mul	t3,t3,t4
    34bc:	01c60633          	add	a2,a2,t3
    34c0:	00069e03          	lh	t3,0(a3)
    34c4:	00079e83          	lh	t4,0(a5)
    34c8:	00268693          	addi	a3,a3,2
    34cc:	009787b3          	add	a5,a5,s1
    34d0:	03de0e33          	mul	t3,t3,t4
    34d4:	01c60633          	add	a2,a2,t3
    34d8:	00069e03          	lh	t3,0(a3)
    34dc:	00079e83          	lh	t4,0(a5)
    34e0:	00268693          	addi	a3,a3,2
    34e4:	009787b3          	add	a5,a5,s1
    34e8:	03de0e33          	mul	t3,t3,t4
    34ec:	01c60633          	add	a2,a2,t3
    34f0:	00069e03          	lh	t3,0(a3)
    34f4:	00079e83          	lh	t4,0(a5)
    34f8:	00268693          	addi	a3,a3,2
    34fc:	009787b3          	add	a5,a5,s1
    3500:	03de0e33          	mul	t3,t3,t4
    3504:	01c60633          	add	a2,a2,t3
    3508:	00069e03          	lh	t3,0(a3)
    350c:	00079e83          	lh	t4,0(a5)
    3510:	00268693          	addi	a3,a3,2
    3514:	009787b3          	add	a5,a5,s1
    3518:	03de0e33          	mul	t3,t3,t4
    351c:	01c60633          	add	a2,a2,t3
    3520:	00069e03          	lh	t3,0(a3)
    3524:	00079e83          	lh	t4,0(a5)
    3528:	00268693          	addi	a3,a3,2
    352c:	009787b3          	add	a5,a5,s1
    3530:	03de0e33          	mul	t3,t3,t4
    3534:	01c60633          	add	a2,a2,t3
    3538:	0cd88e63          	beq	a7,a3,3614 <core_bench_matrix+0xa24>
    353c:	00079e83          	lh	t4,0(a5)
    3540:	00069d83          	lh	s11,0(a3)
    3544:	009787b3          	add	a5,a5,s1
    3548:	00079e03          	lh	t3,0(a5)
    354c:	00269f83          	lh	t6,2(a3)
    3550:	03dd8db3          	mul	s11,s11,t4
    3554:	009787b3          	add	a5,a5,s1
    3558:	00079a03          	lh	s4,0(a5)
    355c:	009787b3          	add	a5,a5,s1
    3560:	00669e83          	lh	t4,6(a3)
    3564:	00079283          	lh	t0,0(a5)
    3568:	00469f03          	lh	t5,4(a3)
    356c:	01d12223          	sw	t4,4(sp)
    3570:	00512423          	sw	t0,8(sp)
    3574:	009787b3          	add	a5,a5,s1
    3578:	03cf8fb3          	mul	t6,t6,t3
    357c:	01b60633          	add	a2,a2,s11
    3580:	00869383          	lh	t2,8(a3)
    3584:	00079e83          	lh	t4,0(a5)
    3588:	009787b3          	add	a5,a5,s1
    358c:	00a69283          	lh	t0,10(a3)
    3590:	00712623          	sw	t2,12(sp)
    3594:	01d12823          	sw	t4,16(sp)
    3598:	00079383          	lh	t2,0(a5)
    359c:	00512a23          	sw	t0,20(sp)
    35a0:	034f0f33          	mul	t5,t5,s4
    35a4:	01f60633          	add	a2,a2,t6
    35a8:	00812a03          	lw	s4,8(sp)
    35ac:	00412f83          	lw	t6,4(sp)
    35b0:	00712c23          	sw	t2,24(sp)
    35b4:	009787b3          	add	a5,a5,s1
    35b8:	00c69e83          	lh	t4,12(a3)
    35bc:	00079383          	lh	t2,0(a5)
    35c0:	009787b3          	add	a5,a5,s1
    35c4:	00e69e03          	lh	t3,14(a3)
    35c8:	034f8fb3          	mul	t6,t6,s4
    35cc:	01e60633          	add	a2,a2,t5
    35d0:	01012a03          	lw	s4,16(sp)
    35d4:	00c12f03          	lw	t5,12(sp)
    35d8:	00079283          	lh	t0,0(a5)
    35dc:	01068693          	addi	a3,a3,16
    35e0:	009787b3          	add	a5,a5,s1
    35e4:	034f0f33          	mul	t5,t5,s4
    35e8:	01f60633          	add	a2,a2,t6
    35ec:	01812a03          	lw	s4,24(sp)
    35f0:	01412f83          	lw	t6,20(sp)
    35f4:	034f8fb3          	mul	t6,t6,s4
    35f8:	01e60633          	add	a2,a2,t5
    35fc:	027e8eb3          	mul	t4,t4,t2
    3600:	01f60633          	add	a2,a2,t6
    3604:	025e0e33          	mul	t3,t3,t0
    3608:	01d60633          	add	a2,a2,t4
    360c:	01c60633          	add	a2,a2,t3
    3610:	f2d896e3          	bne	a7,a3,353c <core_bench_matrix+0x94c>
    3614:	00c5a023          	sw	a2,0(a1)
    3618:	00130313          	addi	t1,t1,1
    361c:	00458593          	addi	a1,a1,4
    3620:	00250513          	addi	a0,a0,2
    3624:	e0641ee3          	bne	s0,t1,3440 <core_bench_matrix+0x850>
    3628:	001a8a13          	addi	s4,s5,1
    362c:	000b0693          	mv	a3,s6
    3630:	00980833          	add	a6,a6,s1
    3634:	00870733          	add	a4,a4,s0
    3638:	009888b3          	add	a7,a7,s1
    363c:	df4416e3          	bne	s0,s4,3428 <core_bench_matrix+0x838>
    3640:	000b0593          	mv	a1,s6
    3644:	00000613          	li	a2,0
    3648:	00000313          	li	t1,0
    364c:	00000893          	li	a7,0
    3650:	00000513          	li	a0,0
    3654:	00000693          	li	a3,0
    3658:	00261e13          	slli	t3,a2,0x2
    365c:	01cc0e33          	add	t3,s8,t3
    3660:	00030713          	mv	a4,t1
    3664:	000e2303          	lw	t1,0(t3)
    3668:	fff40793          	addi	a5,s0,-1
    366c:	0077f793          	andi	a5,a5,7
    3670:	006888b3          	add	a7,a7,t1
    3674:	5f1956e3          	bge	s2,a7,4460 <core_bench_matrix+0x1870>
    3678:	00a50513          	addi	a0,a0,10
    367c:	01051513          	slli	a0,a0,0x10
    3680:	41055513          	srai	a0,a0,0x10
    3684:	00000893          	li	a7,0
    3688:	00100813          	li	a6,1
    368c:	004e0713          	addi	a4,t3,4
    3690:	14887863          	bgeu	a6,s0,37e0 <core_bench_matrix+0xbf0>
    3694:	2e078ce3          	beqz	a5,418c <core_bench_matrix+0x159c>
    3698:	11078e63          	beq	a5,a6,37b4 <core_bench_matrix+0xbc4>
    369c:	00200e93          	li	t4,2
    36a0:	0fd78663          	beq	a5,t4,378c <core_bench_matrix+0xb9c>
    36a4:	00300e93          	li	t4,3
    36a8:	0bd78e63          	beq	a5,t4,3764 <core_bench_matrix+0xb74>
    36ac:	00400e93          	li	t4,4
    36b0:	09d78663          	beq	a5,t4,373c <core_bench_matrix+0xb4c>
    36b4:	00500e93          	li	t4,5
    36b8:	05d78e63          	beq	a5,t4,3714 <core_bench_matrix+0xb24>
    36bc:	00600e93          	li	t4,6
    36c0:	03d78663          	beq	a5,t4,36ec <core_bench_matrix+0xafc>
    36c4:	00030793          	mv	a5,t1
    36c8:	004e2303          	lw	t1,4(t3)
    36cc:	006888b3          	add	a7,a7,t1
    36d0:	7d1948e3          	blt	s2,a7,46a0 <core_bench_matrix+0x1ab0>
    36d4:	0067a7b3          	slt	a5,a5,t1
    36d8:	00f507b3          	add	a5,a0,a5
    36dc:	01079513          	slli	a0,a5,0x10
    36e0:	41055513          	srai	a0,a0,0x10
    36e4:	00180813          	addi	a6,a6,1
    36e8:	00470713          	addi	a4,a4,4
    36ec:	00030793          	mv	a5,t1
    36f0:	00072303          	lw	t1,0(a4)
    36f4:	006888b3          	add	a7,a7,t1
    36f8:	751942e3          	blt	s2,a7,463c <core_bench_matrix+0x1a4c>
    36fc:	0067a7b3          	slt	a5,a5,t1
    3700:	00f507b3          	add	a5,a0,a5
    3704:	01079513          	slli	a0,a5,0x10
    3708:	41055513          	srai	a0,a0,0x10
    370c:	00180813          	addi	a6,a6,1
    3710:	00470713          	addi	a4,a4,4
    3714:	00030793          	mv	a5,t1
    3718:	00072303          	lw	t1,0(a4)
    371c:	006888b3          	add	a7,a7,t1
    3720:	6b194ee3          	blt	s2,a7,45dc <core_bench_matrix+0x19ec>
    3724:	0067a7b3          	slt	a5,a5,t1
    3728:	00f507b3          	add	a5,a0,a5
    372c:	01079513          	slli	a0,a5,0x10
    3730:	41055513          	srai	a0,a0,0x10
    3734:	00180813          	addi	a6,a6,1
    3738:	00470713          	addi	a4,a4,4
    373c:	00030793          	mv	a5,t1
    3740:	00072303          	lw	t1,0(a4)
    3744:	006888b3          	add	a7,a7,t1
    3748:	651942e3          	blt	s2,a7,458c <core_bench_matrix+0x199c>
    374c:	0067a7b3          	slt	a5,a5,t1
    3750:	00f507b3          	add	a5,a0,a5
    3754:	01079513          	slli	a0,a5,0x10
    3758:	41055513          	srai	a0,a0,0x10
    375c:	00180813          	addi	a6,a6,1
    3760:	00470713          	addi	a4,a4,4
    3764:	00030793          	mv	a5,t1
    3768:	00072303          	lw	t1,0(a4)
    376c:	006888b3          	add	a7,a7,t1
    3770:	5d1946e3          	blt	s2,a7,453c <core_bench_matrix+0x194c>
    3774:	0067a7b3          	slt	a5,a5,t1
    3778:	00f507b3          	add	a5,a0,a5
    377c:	01079513          	slli	a0,a5,0x10
    3780:	41055513          	srai	a0,a0,0x10
    3784:	00180813          	addi	a6,a6,1
    3788:	00470713          	addi	a4,a4,4
    378c:	00030793          	mv	a5,t1
    3790:	00072303          	lw	t1,0(a4)
    3794:	006888b3          	add	a7,a7,t1
    3798:	571944e3          	blt	s2,a7,4500 <core_bench_matrix+0x1910>
    379c:	0067a7b3          	slt	a5,a5,t1
    37a0:	00f507b3          	add	a5,a0,a5
    37a4:	01079513          	slli	a0,a5,0x10
    37a8:	41055513          	srai	a0,a0,0x10
    37ac:	00180813          	addi	a6,a6,1
    37b0:	00470713          	addi	a4,a4,4
    37b4:	00030793          	mv	a5,t1
    37b8:	00072303          	lw	t1,0(a4)
    37bc:	006888b3          	add	a7,a7,t1
    37c0:	4d194ee3          	blt	s2,a7,449c <core_bench_matrix+0x18ac>
    37c4:	0067a7b3          	slt	a5,a5,t1
    37c8:	00f507b3          	add	a5,a0,a5
    37cc:	01079513          	slli	a0,a5,0x10
    37d0:	41055513          	srai	a0,a0,0x10
    37d4:	00180813          	addi	a6,a6,1
    37d8:	00470713          	addi	a4,a4,4
    37dc:	1a8868e3          	bltu	a6,s0,418c <core_bench_matrix+0x159c>
    37e0:	00168693          	addi	a3,a3,1
    37e4:	00860633          	add	a2,a2,s0
    37e8:	e686e8e3          	bltu	a3,s0,3658 <core_bench_matrix+0xa68>
    37ec:	5f4050ef          	jal	8de0 <crc16>
    37f0:	000c0f93          	mv	t6,s8
    37f4:	000c8e93          	mv	t4,s9
    37f8:	00000f13          	li	t5,0
    37fc:	00050593          	mv	a1,a0
    3800:	000b8893          	mv	a7,s7
    3804:	000f8e13          	mv	t3,t6
    3808:	00000313          	li	t1,0
    380c:	00089783          	lh	a5,0(a7)
    3810:	000e9703          	lh	a4,0(t4)
    3814:	fff40613          	addi	a2,s0,-1
    3818:	00100513          	li	a0,1
    381c:	02f70733          	mul	a4,a4,a5
    3820:	00367613          	andi	a2,a2,3
    3824:	002e8813          	addi	a6,t4,2
    3828:	009886b3          	add	a3,a7,s1
    382c:	40275793          	srai	a5,a4,0x2
    3830:	40575713          	srai	a4,a4,0x5
    3834:	00f7f793          	andi	a5,a5,15
    3838:	07f77713          	andi	a4,a4,127
    383c:	02e787b3          	mul	a5,a5,a4
    3840:	14857a63          	bgeu	a0,s0,3994 <core_bench_matrix+0xda4>
    3844:	0a060263          	beqz	a2,38e8 <core_bench_matrix+0xcf8>
    3848:	06a60663          	beq	a2,a0,38b4 <core_bench_matrix+0xcc4>
    384c:	00200293          	li	t0,2
    3850:	02560a63          	beq	a2,t0,3884 <core_bench_matrix+0xc94>
    3854:	00069603          	lh	a2,0(a3)
    3858:	002e9703          	lh	a4,2(t4)
    385c:	00028513          	mv	a0,t0
    3860:	004e8813          	addi	a6,t4,4
    3864:	02c70733          	mul	a4,a4,a2
    3868:	009686b3          	add	a3,a3,s1
    386c:	40275613          	srai	a2,a4,0x2
    3870:	40575713          	srai	a4,a4,0x5
    3874:	00f67613          	andi	a2,a2,15
    3878:	07f77713          	andi	a4,a4,127
    387c:	02e60733          	mul	a4,a2,a4
    3880:	00e787b3          	add	a5,a5,a4
    3884:	00069603          	lh	a2,0(a3)
    3888:	00081703          	lh	a4,0(a6)
    388c:	00150513          	addi	a0,a0,1
    3890:	00280813          	addi	a6,a6,2
    3894:	02c70733          	mul	a4,a4,a2
    3898:	009686b3          	add	a3,a3,s1
    389c:	40275613          	srai	a2,a4,0x2
    38a0:	40575713          	srai	a4,a4,0x5
    38a4:	00f67613          	andi	a2,a2,15
    38a8:	07f77713          	andi	a4,a4,127
    38ac:	02e60733          	mul	a4,a2,a4
    38b0:	00e787b3          	add	a5,a5,a4
    38b4:	00069603          	lh	a2,0(a3)
    38b8:	00081703          	lh	a4,0(a6)
    38bc:	00150513          	addi	a0,a0,1
    38c0:	00280813          	addi	a6,a6,2
    38c4:	02c70733          	mul	a4,a4,a2
    38c8:	009686b3          	add	a3,a3,s1
    38cc:	40275613          	srai	a2,a4,0x2
    38d0:	40575713          	srai	a4,a4,0x5
    38d4:	00f67613          	andi	a2,a2,15
    38d8:	07f77713          	andi	a4,a4,127
    38dc:	02e60733          	mul	a4,a2,a4
    38e0:	00e787b3          	add	a5,a5,a4
    38e4:	0a857863          	bgeu	a0,s0,3994 <core_bench_matrix+0xda4>
    38e8:	00069603          	lh	a2,0(a3)
    38ec:	00081703          	lh	a4,0(a6)
    38f0:	009686b3          	add	a3,a3,s1
    38f4:	00069a03          	lh	s4,0(a3)
    38f8:	00281383          	lh	t2,2(a6)
    38fc:	009686b3          	add	a3,a3,s1
    3900:	00069b03          	lh	s6,0(a3)
    3904:	00481283          	lh	t0,4(a6)
    3908:	009686b3          	add	a3,a3,s1
    390c:	02c70733          	mul	a4,a4,a2
    3910:	00069a83          	lh	s5,0(a3)
    3914:	00681603          	lh	a2,6(a6)
    3918:	00450513          	addi	a0,a0,4
    391c:	00880813          	addi	a6,a6,8
    3920:	009686b3          	add	a3,a3,s1
    3924:	034383b3          	mul	t2,t2,s4
    3928:	40275a13          	srai	s4,a4,0x2
    392c:	40575713          	srai	a4,a4,0x5
    3930:	00fa7a13          	andi	s4,s4,15
    3934:	07f77713          	andi	a4,a4,127
    3938:	036282b3          	mul	t0,t0,s6
    393c:	4023db13          	srai	s6,t2,0x2
    3940:	4053d393          	srai	t2,t2,0x5
    3944:	00fb7b13          	andi	s6,s6,15
    3948:	07f3f393          	andi	t2,t2,127
    394c:	03560633          	mul	a2,a2,s5
    3950:	4022da93          	srai	s5,t0,0x2
    3954:	4052d293          	srai	t0,t0,0x5
    3958:	00fafa93          	andi	s5,s5,15
    395c:	07f2f293          	andi	t0,t0,127
    3960:	02ea0733          	mul	a4,s4,a4
    3964:	40265a13          	srai	s4,a2,0x2
    3968:	40565613          	srai	a2,a2,0x5
    396c:	00fa7a13          	andi	s4,s4,15
    3970:	07f67613          	andi	a2,a2,127
    3974:	027b0b33          	mul	s6,s6,t2
    3978:	00e787b3          	add	a5,a5,a4
    397c:	025a8ab3          	mul	s5,s5,t0
    3980:	016787b3          	add	a5,a5,s6
    3984:	02ca0a33          	mul	s4,s4,a2
    3988:	015787b3          	add	a5,a5,s5
    398c:	014787b3          	add	a5,a5,s4
    3990:	f4856ce3          	bltu	a0,s0,38e8 <core_bench_matrix+0xcf8>
    3994:	00fe2023          	sw	a5,0(t3)
    3998:	00130313          	addi	t1,t1,1
    399c:	004e0e13          	addi	t3,t3,4
    39a0:	00288893          	addi	a7,a7,2
    39a4:	e68364e3          	bltu	t1,s0,380c <core_bench_matrix+0xc1c>
    39a8:	001f0f13          	addi	t5,t5,1
    39ac:	009e8eb3          	add	t4,t4,s1
    39b0:	01af8fb3          	add	t6,t6,s10
    39b4:	e48f66e3          	bltu	t5,s0,3800 <core_bench_matrix+0xc10>
    39b8:	00000613          	li	a2,0
    39bc:	00000e13          	li	t3,0
    39c0:	00000893          	li	a7,0
    39c4:	00000513          	li	a0,0
    39c8:	00000693          	li	a3,0
    39cc:	00261313          	slli	t1,a2,0x2
    39d0:	006c0333          	add	t1,s8,t1
    39d4:	000e0713          	mv	a4,t3
    39d8:	00032e03          	lw	t3,0(t1)
    39dc:	fff40793          	addi	a5,s0,-1
    39e0:	0077f793          	andi	a5,a5,7
    39e4:	01c888b3          	add	a7,a7,t3
    39e8:	271952e3          	bge	s2,a7,444c <core_bench_matrix+0x185c>
    39ec:	00a50513          	addi	a0,a0,10
    39f0:	01051513          	slli	a0,a0,0x10
    39f4:	41055513          	srai	a0,a0,0x10
    39f8:	00000893          	li	a7,0
    39fc:	00100813          	li	a6,1
    3a00:	00430713          	addi	a4,t1,4
    3a04:	14887863          	bgeu	a6,s0,3b54 <core_bench_matrix+0xf64>
    3a08:	14078ce3          	beqz	a5,4360 <core_bench_matrix+0x1770>
    3a0c:	11078e63          	beq	a5,a6,3b28 <core_bench_matrix+0xf38>
    3a10:	00200e93          	li	t4,2
    3a14:	0fd78663          	beq	a5,t4,3b00 <core_bench_matrix+0xf10>
    3a18:	00300e93          	li	t4,3
    3a1c:	0bd78e63          	beq	a5,t4,3ad8 <core_bench_matrix+0xee8>
    3a20:	00400e93          	li	t4,4
    3a24:	09d78663          	beq	a5,t4,3ab0 <core_bench_matrix+0xec0>
    3a28:	00500e93          	li	t4,5
    3a2c:	05d78e63          	beq	a5,t4,3a88 <core_bench_matrix+0xe98>
    3a30:	00600e93          	li	t4,6
    3a34:	03d78663          	beq	a5,t4,3a60 <core_bench_matrix+0xe70>
    3a38:	000e0793          	mv	a5,t3
    3a3c:	00432e03          	lw	t3,4(t1)
    3a40:	01c888b3          	add	a7,a7,t3
    3a44:	451944e3          	blt	s2,a7,468c <core_bench_matrix+0x1a9c>
    3a48:	01c7a7b3          	slt	a5,a5,t3
    3a4c:	00f507b3          	add	a5,a0,a5
    3a50:	01079513          	slli	a0,a5,0x10
    3a54:	41055513          	srai	a0,a0,0x10
    3a58:	00180813          	addi	a6,a6,1
    3a5c:	00470713          	addi	a4,a4,4
    3a60:	000e0793          	mv	a5,t3
    3a64:	00072e03          	lw	t3,0(a4)
    3a68:	01c888b3          	add	a7,a7,t3
    3a6c:	3f1942e3          	blt	s2,a7,4650 <core_bench_matrix+0x1a60>
    3a70:	01c7a7b3          	slt	a5,a5,t3
    3a74:	00f507b3          	add	a5,a0,a5
    3a78:	01079513          	slli	a0,a5,0x10
    3a7c:	41055513          	srai	a0,a0,0x10
    3a80:	00180813          	addi	a6,a6,1
    3a84:	00470713          	addi	a4,a4,4
    3a88:	000e0793          	mv	a5,t3
    3a8c:	00072e03          	lw	t3,0(a4)
    3a90:	01c888b3          	add	a7,a7,t3
    3a94:	35194ee3          	blt	s2,a7,45f0 <core_bench_matrix+0x1a00>
    3a98:	01c7a7b3          	slt	a5,a5,t3
    3a9c:	00f507b3          	add	a5,a0,a5
    3aa0:	01079513          	slli	a0,a5,0x10
    3aa4:	41055513          	srai	a0,a0,0x10
    3aa8:	00180813          	addi	a6,a6,1
    3aac:	00470713          	addi	a4,a4,4
    3ab0:	000e0793          	mv	a5,t3
    3ab4:	00072e03          	lw	t3,0(a4)
    3ab8:	01c888b3          	add	a7,a7,t3
    3abc:	2f1942e3          	blt	s2,a7,45a0 <core_bench_matrix+0x19b0>
    3ac0:	01c7a7b3          	slt	a5,a5,t3
    3ac4:	00f507b3          	add	a5,a0,a5
    3ac8:	01079513          	slli	a0,a5,0x10
    3acc:	41055513          	srai	a0,a0,0x10
    3ad0:	00180813          	addi	a6,a6,1
    3ad4:	00470713          	addi	a4,a4,4
    3ad8:	000e0793          	mv	a5,t3
    3adc:	00072e03          	lw	t3,0(a4)
    3ae0:	01c888b3          	add	a7,a7,t3
    3ae4:	271946e3          	blt	s2,a7,4550 <core_bench_matrix+0x1960>
    3ae8:	01c7a7b3          	slt	a5,a5,t3
    3aec:	00f507b3          	add	a5,a0,a5
    3af0:	01079513          	slli	a0,a5,0x10
    3af4:	41055513          	srai	a0,a0,0x10
    3af8:	00180813          	addi	a6,a6,1
    3afc:	00470713          	addi	a4,a4,4
    3b00:	000e0793          	mv	a5,t3
    3b04:	00072e03          	lw	t3,0(a4)
    3b08:	01c888b3          	add	a7,a7,t3
    3b0c:	1f1940e3          	blt	s2,a7,44ec <core_bench_matrix+0x18fc>
    3b10:	01c7a7b3          	slt	a5,a5,t3
    3b14:	00f507b3          	add	a5,a0,a5
    3b18:	01079513          	slli	a0,a5,0x10
    3b1c:	41055513          	srai	a0,a0,0x10
    3b20:	00180813          	addi	a6,a6,1
    3b24:	00470713          	addi	a4,a4,4
    3b28:	000e0793          	mv	a5,t3
    3b2c:	00072e03          	lw	t3,0(a4)
    3b30:	01c888b3          	add	a7,a7,t3
    3b34:	17194ee3          	blt	s2,a7,44b0 <core_bench_matrix+0x18c0>
    3b38:	01c7a7b3          	slt	a5,a5,t3
    3b3c:	00f507b3          	add	a5,a0,a5
    3b40:	01079513          	slli	a0,a5,0x10
    3b44:	41055513          	srai	a0,a0,0x10
    3b48:	00180813          	addi	a6,a6,1
    3b4c:	00470713          	addi	a4,a4,4
    3b50:	008868e3          	bltu	a6,s0,4360 <core_bench_matrix+0x1770>
    3b54:	00168693          	addi	a3,a3,1
    3b58:	00860633          	add	a2,a2,s0
    3b5c:	e686e8e3          	bltu	a3,s0,39cc <core_bench_matrix+0xddc>
    3b60:	280050ef          	jal	8de0 <crc16>
    3b64:	00000813          	li	a6,0
    3b68:	00000593          	li	a1,0
    3b6c:	00181613          	slli	a2,a6,0x1
    3b70:	00cc8633          	add	a2,s9,a2
    3b74:	00065783          	lhu	a5,0(a2)
    3b78:	fff40693          	addi	a3,s0,-1
    3b7c:	00100713          	li	a4,1
    3b80:	413787b3          	sub	a5,a5,s3
    3b84:	00f61023          	sh	a5,0(a2)
    3b88:	0076f693          	andi	a3,a3,7
    3b8c:	00260793          	addi	a5,a2,2
    3b90:	12877863          	bgeu	a4,s0,3cc0 <core_bench_matrix+0x10d0>
    3b94:	0c068063          	beqz	a3,3c54 <core_bench_matrix+0x1064>
    3b98:	0ae68263          	beq	a3,a4,3c3c <core_bench_matrix+0x104c>
    3b9c:	00200893          	li	a7,2
    3ba0:	09168463          	beq	a3,a7,3c28 <core_bench_matrix+0x1038>
    3ba4:	00300313          	li	t1,3
    3ba8:	06668663          	beq	a3,t1,3c14 <core_bench_matrix+0x1024>
    3bac:	00400313          	li	t1,4
    3bb0:	04668863          	beq	a3,t1,3c00 <core_bench_matrix+0x1010>
    3bb4:	00500313          	li	t1,5
    3bb8:	02668a63          	beq	a3,t1,3bec <core_bench_matrix+0xffc>
    3bbc:	00600313          	li	t1,6
    3bc0:	00668c63          	beq	a3,t1,3bd8 <core_bench_matrix+0xfe8>
    3bc4:	00265683          	lhu	a3,2(a2)
    3bc8:	00088713          	mv	a4,a7
    3bcc:	00460793          	addi	a5,a2,4
    3bd0:	413686b3          	sub	a3,a3,s3
    3bd4:	00d61123          	sh	a3,2(a2)
    3bd8:	0007d683          	lhu	a3,0(a5)
    3bdc:	00170713          	addi	a4,a4,1
    3be0:	00278793          	addi	a5,a5,2
    3be4:	413686b3          	sub	a3,a3,s3
    3be8:	fed79f23          	sh	a3,-2(a5)
    3bec:	0007d683          	lhu	a3,0(a5)
    3bf0:	00170713          	addi	a4,a4,1
    3bf4:	00278793          	addi	a5,a5,2
    3bf8:	413686b3          	sub	a3,a3,s3
    3bfc:	fed79f23          	sh	a3,-2(a5)
    3c00:	0007d683          	lhu	a3,0(a5)
    3c04:	00170713          	addi	a4,a4,1
    3c08:	00278793          	addi	a5,a5,2
    3c0c:	413686b3          	sub	a3,a3,s3
    3c10:	fed79f23          	sh	a3,-2(a5)
    3c14:	0007d683          	lhu	a3,0(a5)
    3c18:	00170713          	addi	a4,a4,1
    3c1c:	00278793          	addi	a5,a5,2
    3c20:	413686b3          	sub	a3,a3,s3
    3c24:	fed79f23          	sh	a3,-2(a5)
    3c28:	0007d683          	lhu	a3,0(a5)
    3c2c:	00170713          	addi	a4,a4,1
    3c30:	00278793          	addi	a5,a5,2
    3c34:	413686b3          	sub	a3,a3,s3
    3c38:	fed79f23          	sh	a3,-2(a5)
    3c3c:	0007d683          	lhu	a3,0(a5)
    3c40:	00170713          	addi	a4,a4,1
    3c44:	00278793          	addi	a5,a5,2
    3c48:	413686b3          	sub	a3,a3,s3
    3c4c:	fed79f23          	sh	a3,-2(a5)
    3c50:	06877863          	bgeu	a4,s0,3cc0 <core_bench_matrix+0x10d0>
    3c54:	0007df83          	lhu	t6,0(a5)
    3c58:	0027df03          	lhu	t5,2(a5)
    3c5c:	0047de83          	lhu	t4,4(a5)
    3c60:	0067de03          	lhu	t3,6(a5)
    3c64:	0087d303          	lhu	t1,8(a5)
    3c68:	00a7d883          	lhu	a7,10(a5)
    3c6c:	00c7d603          	lhu	a2,12(a5)
    3c70:	00e7d683          	lhu	a3,14(a5)
    3c74:	413f8fb3          	sub	t6,t6,s3
    3c78:	413f0f33          	sub	t5,t5,s3
    3c7c:	413e8eb3          	sub	t4,t4,s3
    3c80:	413e0e33          	sub	t3,t3,s3
    3c84:	41330333          	sub	t1,t1,s3
    3c88:	413888b3          	sub	a7,a7,s3
    3c8c:	41360633          	sub	a2,a2,s3
    3c90:	413686b3          	sub	a3,a3,s3
    3c94:	01f79023          	sh	t6,0(a5)
    3c98:	01e79123          	sh	t5,2(a5)
    3c9c:	01d79223          	sh	t4,4(a5)
    3ca0:	01c79323          	sh	t3,6(a5)
    3ca4:	00679423          	sh	t1,8(a5)
    3ca8:	01179523          	sh	a7,10(a5)
    3cac:	00c79623          	sh	a2,12(a5)
    3cb0:	00d79723          	sh	a3,14(a5)
    3cb4:	00870713          	addi	a4,a4,8
    3cb8:	01078793          	addi	a5,a5,16
    3cbc:	f8876ce3          	bltu	a4,s0,3c54 <core_bench_matrix+0x1064>
    3cc0:	00158593          	addi	a1,a1,1
    3cc4:	00880833          	add	a6,a6,s0
    3cc8:	ea85e2e3          	bltu	a1,s0,3b6c <core_bench_matrix+0xf7c>
    3ccc:	05412483          	lw	s1,84(sp)
    3cd0:	04c12983          	lw	s3,76(sp)
    3cd4:	04812a03          	lw	s4,72(sp)
    3cd8:	04412a83          	lw	s5,68(sp)
    3cdc:	04012b03          	lw	s6,64(sp)
    3ce0:	03012d03          	lw	s10,48(sp)
    3ce4:	02c12d83          	lw	s11,44(sp)
    3ce8:	05812403          	lw	s0,88(sp)
    3cec:	01c12583          	lw	a1,28(sp)
    3cf0:	05c12083          	lw	ra,92(sp)
    3cf4:	05012903          	lw	s2,80(sp)
    3cf8:	03c12b83          	lw	s7,60(sp)
    3cfc:	03812c03          	lw	s8,56(sp)
    3d00:	03412c83          	lw	s9,52(sp)
    3d04:	01051513          	slli	a0,a0,0x10
    3d08:	41055513          	srai	a0,a0,0x10
    3d0c:	06010113          	addi	sp,sp,96
    3d10:	0d00506f          	j	8de0 <crc16>
    3d14:	0046a883          	lw	a7,4(a3)
    3d18:	00a50793          	addi	a5,a0,10
    3d1c:	00000813          	li	a6,0
    3d20:	01079793          	slli	a5,a5,0x10
    3d24:	01180833          	add	a6,a6,a7
    3d28:	4107d793          	srai	a5,a5,0x10
    3d2c:	00468693          	addi	a3,a3,4
    3d30:	0f095863          	bge	s2,a6,3e20 <core_bench_matrix+0x1230>
    3d34:	0046a503          	lw	a0,4(a3)
    3d38:	00a78793          	addi	a5,a5,10
    3d3c:	00000813          	li	a6,0
    3d40:	01079793          	slli	a5,a5,0x10
    3d44:	00a80833          	add	a6,a6,a0
    3d48:	4107d793          	srai	a5,a5,0x10
    3d4c:	0f094863          	blt	s2,a6,3e3c <core_bench_matrix+0x124c>
    3d50:	00a8a8b3          	slt	a7,a7,a0
    3d54:	011787b3          	add	a5,a5,a7
    3d58:	0086a883          	lw	a7,8(a3)
    3d5c:	01079793          	slli	a5,a5,0x10
    3d60:	4107d793          	srai	a5,a5,0x10
    3d64:	01180833          	add	a6,a6,a7
    3d68:	0f094863          	blt	s2,a6,3e58 <core_bench_matrix+0x1268>
    3d6c:	01152533          	slt	a0,a0,a7
    3d70:	00a787b3          	add	a5,a5,a0
    3d74:	00c6a503          	lw	a0,12(a3)
    3d78:	01079793          	slli	a5,a5,0x10
    3d7c:	4107d793          	srai	a5,a5,0x10
    3d80:	00a80833          	add	a6,a6,a0
    3d84:	0f094863          	blt	s2,a6,3e74 <core_bench_matrix+0x1284>
    3d88:	00a8a8b3          	slt	a7,a7,a0
    3d8c:	011787b3          	add	a5,a5,a7
    3d90:	0106a883          	lw	a7,16(a3)
    3d94:	01079793          	slli	a5,a5,0x10
    3d98:	4107d793          	srai	a5,a5,0x10
    3d9c:	01180833          	add	a6,a6,a7
    3da0:	0f094863          	blt	s2,a6,3e90 <core_bench_matrix+0x12a0>
    3da4:	01152533          	slt	a0,a0,a7
    3da8:	00a787b3          	add	a5,a5,a0
    3dac:	0146a503          	lw	a0,20(a3)
    3db0:	01079793          	slli	a5,a5,0x10
    3db4:	4107d793          	srai	a5,a5,0x10
    3db8:	00a80833          	add	a6,a6,a0
    3dbc:	0f094863          	blt	s2,a6,3eac <core_bench_matrix+0x12bc>
    3dc0:	00a8a8b3          	slt	a7,a7,a0
    3dc4:	011787b3          	add	a5,a5,a7
    3dc8:	0186a883          	lw	a7,24(a3)
    3dcc:	01079793          	slli	a5,a5,0x10
    3dd0:	4107d793          	srai	a5,a5,0x10
    3dd4:	01180833          	add	a6,a6,a7
    3dd8:	0f094863          	blt	s2,a6,3ec8 <core_bench_matrix+0x12d8>
    3ddc:	01152533          	slt	a0,a0,a7
    3de0:	00a787b3          	add	a5,a5,a0
    3de4:	01079513          	slli	a0,a5,0x10
    3de8:	41055513          	srai	a0,a0,0x10
    3dec:	01c68693          	addi	a3,a3,28
    3df0:	aad70663          	beq	a4,a3,309c <core_bench_matrix+0x4ac>
    3df4:	0006a303          	lw	t1,0(a3)
    3df8:	00680833          	add	a6,a6,t1
    3dfc:	f1094ce3          	blt	s2,a6,3d14 <core_bench_matrix+0x1124>
    3e00:	0068a7b3          	slt	a5,a7,t1
    3e04:	0046a883          	lw	a7,4(a3)
    3e08:	00f507b3          	add	a5,a0,a5
    3e0c:	01079793          	slli	a5,a5,0x10
    3e10:	01180833          	add	a6,a6,a7
    3e14:	4107d793          	srai	a5,a5,0x10
    3e18:	00468693          	addi	a3,a3,4
    3e1c:	f1094ce3          	blt	s2,a6,3d34 <core_bench_matrix+0x1144>
    3e20:	0046a503          	lw	a0,4(a3)
    3e24:	01132333          	slt	t1,t1,a7
    3e28:	006787b3          	add	a5,a5,t1
    3e2c:	01079793          	slli	a5,a5,0x10
    3e30:	00a80833          	add	a6,a6,a0
    3e34:	4107d793          	srai	a5,a5,0x10
    3e38:	f1095ce3          	bge	s2,a6,3d50 <core_bench_matrix+0x1160>
    3e3c:	0086a883          	lw	a7,8(a3)
    3e40:	00a78793          	addi	a5,a5,10
    3e44:	00000813          	li	a6,0
    3e48:	01079793          	slli	a5,a5,0x10
    3e4c:	01180833          	add	a6,a6,a7
    3e50:	4107d793          	srai	a5,a5,0x10
    3e54:	f1095ce3          	bge	s2,a6,3d6c <core_bench_matrix+0x117c>
    3e58:	00c6a503          	lw	a0,12(a3)
    3e5c:	00a78793          	addi	a5,a5,10
    3e60:	00000813          	li	a6,0
    3e64:	01079793          	slli	a5,a5,0x10
    3e68:	00a80833          	add	a6,a6,a0
    3e6c:	4107d793          	srai	a5,a5,0x10
    3e70:	f1095ce3          	bge	s2,a6,3d88 <core_bench_matrix+0x1198>
    3e74:	0106a883          	lw	a7,16(a3)
    3e78:	00a78793          	addi	a5,a5,10
    3e7c:	00000813          	li	a6,0
    3e80:	01079793          	slli	a5,a5,0x10
    3e84:	01180833          	add	a6,a6,a7
    3e88:	4107d793          	srai	a5,a5,0x10
    3e8c:	f1095ce3          	bge	s2,a6,3da4 <core_bench_matrix+0x11b4>
    3e90:	0146a503          	lw	a0,20(a3)
    3e94:	00a78793          	addi	a5,a5,10
    3e98:	00000813          	li	a6,0
    3e9c:	01079793          	slli	a5,a5,0x10
    3ea0:	00a80833          	add	a6,a6,a0
    3ea4:	4107d793          	srai	a5,a5,0x10
    3ea8:	f1095ce3          	bge	s2,a6,3dc0 <core_bench_matrix+0x11d0>
    3eac:	0186a883          	lw	a7,24(a3)
    3eb0:	00a78793          	addi	a5,a5,10
    3eb4:	00000813          	li	a6,0
    3eb8:	01079793          	slli	a5,a5,0x10
    3ebc:	01180833          	add	a6,a6,a7
    3ec0:	4107d793          	srai	a5,a5,0x10
    3ec4:	f1095ce3          	bge	s2,a6,3ddc <core_bench_matrix+0x11ec>
    3ec8:	00a78793          	addi	a5,a5,10
    3ecc:	01079513          	slli	a0,a5,0x10
    3ed0:	41055513          	srai	a0,a0,0x10
    3ed4:	00000813          	li	a6,0
    3ed8:	f15ff06f          	j	3dec <core_bench_matrix+0x11fc>
    3edc:	00472883          	lw	a7,4(a4)
    3ee0:	00a50793          	addi	a5,a0,10
    3ee4:	00000813          	li	a6,0
    3ee8:	01079793          	slli	a5,a5,0x10
    3eec:	01180833          	add	a6,a6,a7
    3ef0:	4107d793          	srai	a5,a5,0x10
    3ef4:	00470713          	addi	a4,a4,4
    3ef8:	0f095863          	bge	s2,a6,3fe8 <core_bench_matrix+0x13f8>
    3efc:	00472503          	lw	a0,4(a4)
    3f00:	00a78793          	addi	a5,a5,10
    3f04:	00000813          	li	a6,0
    3f08:	01079793          	slli	a5,a5,0x10
    3f0c:	00a80833          	add	a6,a6,a0
    3f10:	4107d793          	srai	a5,a5,0x10
    3f14:	0f094863          	blt	s2,a6,4004 <core_bench_matrix+0x1414>
    3f18:	00a8a8b3          	slt	a7,a7,a0
    3f1c:	011787b3          	add	a5,a5,a7
    3f20:	00872883          	lw	a7,8(a4)
    3f24:	01079793          	slli	a5,a5,0x10
    3f28:	4107d793          	srai	a5,a5,0x10
    3f2c:	01180833          	add	a6,a6,a7
    3f30:	0f094863          	blt	s2,a6,4020 <core_bench_matrix+0x1430>
    3f34:	01152533          	slt	a0,a0,a7
    3f38:	00a787b3          	add	a5,a5,a0
    3f3c:	00c72503          	lw	a0,12(a4)
    3f40:	01079793          	slli	a5,a5,0x10
    3f44:	4107d793          	srai	a5,a5,0x10
    3f48:	00a80833          	add	a6,a6,a0
    3f4c:	0f094863          	blt	s2,a6,403c <core_bench_matrix+0x144c>
    3f50:	00a8a8b3          	slt	a7,a7,a0
    3f54:	011787b3          	add	a5,a5,a7
    3f58:	01072883          	lw	a7,16(a4)
    3f5c:	01079793          	slli	a5,a5,0x10
    3f60:	4107d793          	srai	a5,a5,0x10
    3f64:	01180833          	add	a6,a6,a7
    3f68:	0f094863          	blt	s2,a6,4058 <core_bench_matrix+0x1468>
    3f6c:	01152533          	slt	a0,a0,a7
    3f70:	00a787b3          	add	a5,a5,a0
    3f74:	01472503          	lw	a0,20(a4)
    3f78:	01079793          	slli	a5,a5,0x10
    3f7c:	4107d793          	srai	a5,a5,0x10
    3f80:	00a80833          	add	a6,a6,a0
    3f84:	0f094863          	blt	s2,a6,4074 <core_bench_matrix+0x1484>
    3f88:	00a8a8b3          	slt	a7,a7,a0
    3f8c:	011787b3          	add	a5,a5,a7
    3f90:	01872883          	lw	a7,24(a4)
    3f94:	01079793          	slli	a5,a5,0x10
    3f98:	4107d793          	srai	a5,a5,0x10
    3f9c:	01180833          	add	a6,a6,a7
    3fa0:	0f094863          	blt	s2,a6,4090 <core_bench_matrix+0x14a0>
    3fa4:	01152533          	slt	a0,a0,a7
    3fa8:	00a787b3          	add	a5,a5,a0
    3fac:	01079513          	slli	a0,a5,0x10
    3fb0:	41055513          	srai	a0,a0,0x10
    3fb4:	01c70713          	addi	a4,a4,28
    3fb8:	c4ea0463          	beq	s4,a4,3400 <core_bench_matrix+0x810>
    3fbc:	00072303          	lw	t1,0(a4)
    3fc0:	00680833          	add	a6,a6,t1
    3fc4:	f1094ce3          	blt	s2,a6,3edc <core_bench_matrix+0x12ec>
    3fc8:	0068a7b3          	slt	a5,a7,t1
    3fcc:	00472883          	lw	a7,4(a4)
    3fd0:	00f507b3          	add	a5,a0,a5
    3fd4:	01079793          	slli	a5,a5,0x10
    3fd8:	01180833          	add	a6,a6,a7
    3fdc:	4107d793          	srai	a5,a5,0x10
    3fe0:	00470713          	addi	a4,a4,4
    3fe4:	f1094ce3          	blt	s2,a6,3efc <core_bench_matrix+0x130c>
    3fe8:	00472503          	lw	a0,4(a4)
    3fec:	01132333          	slt	t1,t1,a7
    3ff0:	006787b3          	add	a5,a5,t1
    3ff4:	01079793          	slli	a5,a5,0x10
    3ff8:	00a80833          	add	a6,a6,a0
    3ffc:	4107d793          	srai	a5,a5,0x10
    4000:	f1095ce3          	bge	s2,a6,3f18 <core_bench_matrix+0x1328>
    4004:	00872883          	lw	a7,8(a4)
    4008:	00a78793          	addi	a5,a5,10
    400c:	00000813          	li	a6,0
    4010:	01079793          	slli	a5,a5,0x10
    4014:	01180833          	add	a6,a6,a7
    4018:	4107d793          	srai	a5,a5,0x10
    401c:	f1095ce3          	bge	s2,a6,3f34 <core_bench_matrix+0x1344>
    4020:	00c72503          	lw	a0,12(a4)
    4024:	00a78793          	addi	a5,a5,10
    4028:	00000813          	li	a6,0
    402c:	01079793          	slli	a5,a5,0x10
    4030:	00a80833          	add	a6,a6,a0
    4034:	4107d793          	srai	a5,a5,0x10
    4038:	f1095ce3          	bge	s2,a6,3f50 <core_bench_matrix+0x1360>
    403c:	01072883          	lw	a7,16(a4)
    4040:	00a78793          	addi	a5,a5,10
    4044:	00000813          	li	a6,0
    4048:	01079793          	slli	a5,a5,0x10
    404c:	01180833          	add	a6,a6,a7
    4050:	4107d793          	srai	a5,a5,0x10
    4054:	f1095ce3          	bge	s2,a6,3f6c <core_bench_matrix+0x137c>
    4058:	01472503          	lw	a0,20(a4)
    405c:	00a78793          	addi	a5,a5,10
    4060:	00000813          	li	a6,0
    4064:	01079793          	slli	a5,a5,0x10
    4068:	00a80833          	add	a6,a6,a0
    406c:	4107d793          	srai	a5,a5,0x10
    4070:	f1095ce3          	bge	s2,a6,3f88 <core_bench_matrix+0x1398>
    4074:	01872883          	lw	a7,24(a4)
    4078:	00a78793          	addi	a5,a5,10
    407c:	00000813          	li	a6,0
    4080:	01079793          	slli	a5,a5,0x10
    4084:	01180833          	add	a6,a6,a7
    4088:	4107d793          	srai	a5,a5,0x10
    408c:	f1095ce3          	bge	s2,a6,3fa4 <core_bench_matrix+0x13b4>
    4090:	00a78793          	addi	a5,a5,10
    4094:	01079513          	slli	a0,a5,0x10
    4098:	41055513          	srai	a0,a0,0x10
    409c:	00000813          	li	a6,0
    40a0:	f15ff06f          	j	3fb4 <core_bench_matrix+0x13c4>
    40a4:	00472303          	lw	t1,4(a4)
    40a8:	00a50793          	addi	a5,a0,10
    40ac:	00000893          	li	a7,0
    40b0:	01079793          	slli	a5,a5,0x10
    40b4:	006888b3          	add	a7,a7,t1
    40b8:	4107d793          	srai	a5,a5,0x10
    40bc:	00180813          	addi	a6,a6,1
    40c0:	00470713          	addi	a4,a4,4
    40c4:	0f195c63          	bge	s2,a7,41bc <core_bench_matrix+0x15cc>
    40c8:	00472503          	lw	a0,4(a4)
    40cc:	00a78793          	addi	a5,a5,10
    40d0:	00000893          	li	a7,0
    40d4:	01079793          	slli	a5,a5,0x10
    40d8:	00a888b3          	add	a7,a7,a0
    40dc:	4107d793          	srai	a5,a5,0x10
    40e0:	0f194c63          	blt	s2,a7,41d8 <core_bench_matrix+0x15e8>
    40e4:	00a32333          	slt	t1,t1,a0
    40e8:	006787b3          	add	a5,a5,t1
    40ec:	00872303          	lw	t1,8(a4)
    40f0:	01079793          	slli	a5,a5,0x10
    40f4:	4107d793          	srai	a5,a5,0x10
    40f8:	006888b3          	add	a7,a7,t1
    40fc:	0f194c63          	blt	s2,a7,41f4 <core_bench_matrix+0x1604>
    4100:	00652533          	slt	a0,a0,t1
    4104:	00a787b3          	add	a5,a5,a0
    4108:	00c72503          	lw	a0,12(a4)
    410c:	01079793          	slli	a5,a5,0x10
    4110:	4107d793          	srai	a5,a5,0x10
    4114:	00a888b3          	add	a7,a7,a0
    4118:	0f194c63          	blt	s2,a7,4210 <core_bench_matrix+0x1620>
    411c:	00a32333          	slt	t1,t1,a0
    4120:	006787b3          	add	a5,a5,t1
    4124:	01072303          	lw	t1,16(a4)
    4128:	01079793          	slli	a5,a5,0x10
    412c:	4107d793          	srai	a5,a5,0x10
    4130:	006888b3          	add	a7,a7,t1
    4134:	0f194c63          	blt	s2,a7,422c <core_bench_matrix+0x163c>
    4138:	00652533          	slt	a0,a0,t1
    413c:	00a787b3          	add	a5,a5,a0
    4140:	01472503          	lw	a0,20(a4)
    4144:	01079793          	slli	a5,a5,0x10
    4148:	4107d793          	srai	a5,a5,0x10
    414c:	00a888b3          	add	a7,a7,a0
    4150:	0f194c63          	blt	s2,a7,4248 <core_bench_matrix+0x1658>
    4154:	00a32333          	slt	t1,t1,a0
    4158:	006787b3          	add	a5,a5,t1
    415c:	01872303          	lw	t1,24(a4)
    4160:	01079793          	slli	a5,a5,0x10
    4164:	4107d793          	srai	a5,a5,0x10
    4168:	006888b3          	add	a7,a7,t1
    416c:	0f194c63          	blt	s2,a7,4264 <core_bench_matrix+0x1674>
    4170:	00652533          	slt	a0,a0,t1
    4174:	00a787b3          	add	a5,a5,a0
    4178:	01079513          	slli	a0,a5,0x10
    417c:	41055513          	srai	a0,a0,0x10
    4180:	00780813          	addi	a6,a6,7
    4184:	01c70713          	addi	a4,a4,28
    4188:	e4887c63          	bgeu	a6,s0,37e0 <core_bench_matrix+0xbf0>
    418c:	00072e03          	lw	t3,0(a4)
    4190:	01c888b3          	add	a7,a7,t3
    4194:	f11948e3          	blt	s2,a7,40a4 <core_bench_matrix+0x14b4>
    4198:	01c327b3          	slt	a5,t1,t3
    419c:	00472303          	lw	t1,4(a4)
    41a0:	00f507b3          	add	a5,a0,a5
    41a4:	01079793          	slli	a5,a5,0x10
    41a8:	006888b3          	add	a7,a7,t1
    41ac:	4107d793          	srai	a5,a5,0x10
    41b0:	00180813          	addi	a6,a6,1
    41b4:	00470713          	addi	a4,a4,4
    41b8:	f11948e3          	blt	s2,a7,40c8 <core_bench_matrix+0x14d8>
    41bc:	00472503          	lw	a0,4(a4)
    41c0:	006e2e33          	slt	t3,t3,t1
    41c4:	01c787b3          	add	a5,a5,t3
    41c8:	01079793          	slli	a5,a5,0x10
    41cc:	00a888b3          	add	a7,a7,a0
    41d0:	4107d793          	srai	a5,a5,0x10
    41d4:	f11958e3          	bge	s2,a7,40e4 <core_bench_matrix+0x14f4>
    41d8:	00872303          	lw	t1,8(a4)
    41dc:	00a78793          	addi	a5,a5,10
    41e0:	00000893          	li	a7,0
    41e4:	01079793          	slli	a5,a5,0x10
    41e8:	006888b3          	add	a7,a7,t1
    41ec:	4107d793          	srai	a5,a5,0x10
    41f0:	f11958e3          	bge	s2,a7,4100 <core_bench_matrix+0x1510>
    41f4:	00c72503          	lw	a0,12(a4)
    41f8:	00a78793          	addi	a5,a5,10
    41fc:	00000893          	li	a7,0
    4200:	01079793          	slli	a5,a5,0x10
    4204:	00a888b3          	add	a7,a7,a0
    4208:	4107d793          	srai	a5,a5,0x10
    420c:	f11958e3          	bge	s2,a7,411c <core_bench_matrix+0x152c>
    4210:	01072303          	lw	t1,16(a4)
    4214:	00a78793          	addi	a5,a5,10
    4218:	00000893          	li	a7,0
    421c:	01079793          	slli	a5,a5,0x10
    4220:	006888b3          	add	a7,a7,t1
    4224:	4107d793          	srai	a5,a5,0x10
    4228:	f11958e3          	bge	s2,a7,4138 <core_bench_matrix+0x1548>
    422c:	01472503          	lw	a0,20(a4)
    4230:	00a78793          	addi	a5,a5,10
    4234:	00000893          	li	a7,0
    4238:	01079793          	slli	a5,a5,0x10
    423c:	00a888b3          	add	a7,a7,a0
    4240:	4107d793          	srai	a5,a5,0x10
    4244:	f11958e3          	bge	s2,a7,4154 <core_bench_matrix+0x1564>
    4248:	01872303          	lw	t1,24(a4)
    424c:	00a78793          	addi	a5,a5,10
    4250:	00000893          	li	a7,0
    4254:	01079793          	slli	a5,a5,0x10
    4258:	006888b3          	add	a7,a7,t1
    425c:	4107d793          	srai	a5,a5,0x10
    4260:	f11958e3          	bge	s2,a7,4170 <core_bench_matrix+0x1580>
    4264:	00a78793          	addi	a5,a5,10
    4268:	01079513          	slli	a0,a5,0x10
    426c:	41055513          	srai	a0,a0,0x10
    4270:	00000893          	li	a7,0
    4274:	f0dff06f          	j	4180 <core_bench_matrix+0x1590>
    4278:	00472303          	lw	t1,4(a4)
    427c:	00a50793          	addi	a5,a0,10
    4280:	00000893          	li	a7,0
    4284:	01079793          	slli	a5,a5,0x10
    4288:	006888b3          	add	a7,a7,t1
    428c:	4107d793          	srai	a5,a5,0x10
    4290:	00180813          	addi	a6,a6,1
    4294:	00470713          	addi	a4,a4,4
    4298:	0f195c63          	bge	s2,a7,4390 <core_bench_matrix+0x17a0>
    429c:	00472503          	lw	a0,4(a4)
    42a0:	00a78793          	addi	a5,a5,10
    42a4:	00000893          	li	a7,0
    42a8:	01079793          	slli	a5,a5,0x10
    42ac:	00a888b3          	add	a7,a7,a0
    42b0:	4107d793          	srai	a5,a5,0x10
    42b4:	0f194c63          	blt	s2,a7,43ac <core_bench_matrix+0x17bc>
    42b8:	00a32333          	slt	t1,t1,a0
    42bc:	006787b3          	add	a5,a5,t1
    42c0:	00872303          	lw	t1,8(a4)
    42c4:	01079793          	slli	a5,a5,0x10
    42c8:	4107d793          	srai	a5,a5,0x10
    42cc:	006888b3          	add	a7,a7,t1
    42d0:	0f194c63          	blt	s2,a7,43c8 <core_bench_matrix+0x17d8>
    42d4:	00652533          	slt	a0,a0,t1
    42d8:	00a787b3          	add	a5,a5,a0
    42dc:	00c72503          	lw	a0,12(a4)
    42e0:	01079793          	slli	a5,a5,0x10
    42e4:	4107d793          	srai	a5,a5,0x10
    42e8:	00a888b3          	add	a7,a7,a0
    42ec:	0f194c63          	blt	s2,a7,43e4 <core_bench_matrix+0x17f4>
    42f0:	00a32333          	slt	t1,t1,a0
    42f4:	006787b3          	add	a5,a5,t1
    42f8:	01072303          	lw	t1,16(a4)
    42fc:	01079793          	slli	a5,a5,0x10
    4300:	4107d793          	srai	a5,a5,0x10
    4304:	006888b3          	add	a7,a7,t1
    4308:	0f194c63          	blt	s2,a7,4400 <core_bench_matrix+0x1810>
    430c:	00652533          	slt	a0,a0,t1
    4310:	00a787b3          	add	a5,a5,a0
    4314:	01472503          	lw	a0,20(a4)
    4318:	01079793          	slli	a5,a5,0x10
    431c:	4107d793          	srai	a5,a5,0x10
    4320:	00a888b3          	add	a7,a7,a0
    4324:	0f194c63          	blt	s2,a7,441c <core_bench_matrix+0x182c>
    4328:	01872e03          	lw	t3,24(a4)
    432c:	00a32333          	slt	t1,t1,a0
    4330:	006787b3          	add	a5,a5,t1
    4334:	01079793          	slli	a5,a5,0x10
    4338:	01c888b3          	add	a7,a7,t3
    433c:	4107d793          	srai	a5,a5,0x10
    4340:	0f194c63          	blt	s2,a7,4438 <core_bench_matrix+0x1848>
    4344:	01c52533          	slt	a0,a0,t3
    4348:	00a787b3          	add	a5,a5,a0
    434c:	01079513          	slli	a0,a5,0x10
    4350:	41055513          	srai	a0,a0,0x10
    4354:	00780813          	addi	a6,a6,7
    4358:	01c70713          	addi	a4,a4,28
    435c:	fe887c63          	bgeu	a6,s0,3b54 <core_bench_matrix+0xf64>
    4360:	00072e83          	lw	t4,0(a4)
    4364:	01d888b3          	add	a7,a7,t4
    4368:	f11948e3          	blt	s2,a7,4278 <core_bench_matrix+0x1688>
    436c:	00472303          	lw	t1,4(a4)
    4370:	01de27b3          	slt	a5,t3,t4
    4374:	00f507b3          	add	a5,a0,a5
    4378:	01079793          	slli	a5,a5,0x10
    437c:	006888b3          	add	a7,a7,t1
    4380:	4107d793          	srai	a5,a5,0x10
    4384:	00180813          	addi	a6,a6,1
    4388:	00470713          	addi	a4,a4,4
    438c:	f11948e3          	blt	s2,a7,429c <core_bench_matrix+0x16ac>
    4390:	00472503          	lw	a0,4(a4)
    4394:	006eaeb3          	slt	t4,t4,t1
    4398:	01d787b3          	add	a5,a5,t4
    439c:	01079793          	slli	a5,a5,0x10
    43a0:	00a888b3          	add	a7,a7,a0
    43a4:	4107d793          	srai	a5,a5,0x10
    43a8:	f11958e3          	bge	s2,a7,42b8 <core_bench_matrix+0x16c8>
    43ac:	00872303          	lw	t1,8(a4)
    43b0:	00a78793          	addi	a5,a5,10
    43b4:	00000893          	li	a7,0
    43b8:	01079793          	slli	a5,a5,0x10
    43bc:	006888b3          	add	a7,a7,t1
    43c0:	4107d793          	srai	a5,a5,0x10
    43c4:	f11958e3          	bge	s2,a7,42d4 <core_bench_matrix+0x16e4>
    43c8:	00c72503          	lw	a0,12(a4)
    43cc:	00a78793          	addi	a5,a5,10
    43d0:	00000893          	li	a7,0
    43d4:	01079793          	slli	a5,a5,0x10
    43d8:	00a888b3          	add	a7,a7,a0
    43dc:	4107d793          	srai	a5,a5,0x10
    43e0:	f11958e3          	bge	s2,a7,42f0 <core_bench_matrix+0x1700>
    43e4:	01072303          	lw	t1,16(a4)
    43e8:	00a78793          	addi	a5,a5,10
    43ec:	00000893          	li	a7,0
    43f0:	01079793          	slli	a5,a5,0x10
    43f4:	006888b3          	add	a7,a7,t1
    43f8:	4107d793          	srai	a5,a5,0x10
    43fc:	f11958e3          	bge	s2,a7,430c <core_bench_matrix+0x171c>
    4400:	01472503          	lw	a0,20(a4)
    4404:	00a78793          	addi	a5,a5,10
    4408:	00000893          	li	a7,0
    440c:	01079793          	slli	a5,a5,0x10
    4410:	00a888b3          	add	a7,a7,a0
    4414:	4107d793          	srai	a5,a5,0x10
    4418:	f11958e3          	bge	s2,a7,4328 <core_bench_matrix+0x1738>
    441c:	01872e03          	lw	t3,24(a4)
    4420:	00a78793          	addi	a5,a5,10
    4424:	00000893          	li	a7,0
    4428:	01079793          	slli	a5,a5,0x10
    442c:	01c888b3          	add	a7,a7,t3
    4430:	4107d793          	srai	a5,a5,0x10
    4434:	f11958e3          	bge	s2,a7,4344 <core_bench_matrix+0x1754>
    4438:	00a78793          	addi	a5,a5,10
    443c:	01079513          	slli	a0,a5,0x10
    4440:	41055513          	srai	a0,a0,0x10
    4444:	00000893          	li	a7,0
    4448:	f0dff06f          	j	4354 <core_bench_matrix+0x1764>
    444c:	01c72733          	slt	a4,a4,t3
    4450:	00e50733          	add	a4,a0,a4
    4454:	01071513          	slli	a0,a4,0x10
    4458:	41055513          	srai	a0,a0,0x10
    445c:	da0ff06f          	j	39fc <core_bench_matrix+0xe0c>
    4460:	00672733          	slt	a4,a4,t1
    4464:	00e50733          	add	a4,a0,a4
    4468:	01071513          	slli	a0,a4,0x10
    446c:	41055513          	srai	a0,a0,0x10
    4470:	a18ff06f          	j	3688 <core_bench_matrix+0xa98>
    4474:	00a50513          	addi	a0,a0,10
    4478:	01051513          	slli	a0,a0,0x10
    447c:	41055513          	srai	a0,a0,0x10
    4480:	00000813          	li	a6,0
    4484:	c11fe06f          	j	3094 <core_bench_matrix+0x4a4>
    4488:	00a50513          	addi	a0,a0,10
    448c:	01051513          	slli	a0,a0,0x10
    4490:	41055513          	srai	a0,a0,0x10
    4494:	00000813          	li	a6,0
    4498:	f61fe06f          	j	33f8 <core_bench_matrix+0x808>
    449c:	00a50513          	addi	a0,a0,10
    44a0:	01051513          	slli	a0,a0,0x10
    44a4:	41055513          	srai	a0,a0,0x10
    44a8:	00000893          	li	a7,0
    44ac:	b28ff06f          	j	37d4 <core_bench_matrix+0xbe4>
    44b0:	00a50513          	addi	a0,a0,10
    44b4:	01051513          	slli	a0,a0,0x10
    44b8:	41055513          	srai	a0,a0,0x10
    44bc:	00000893          	li	a7,0
    44c0:	e88ff06f          	j	3b48 <core_bench_matrix+0xf58>
    44c4:	00a50513          	addi	a0,a0,10
    44c8:	01051513          	slli	a0,a0,0x10
    44cc:	41055513          	srai	a0,a0,0x10
    44d0:	00000813          	li	a6,0
    44d4:	efdfe06f          	j	33d0 <core_bench_matrix+0x7e0>
    44d8:	00a50513          	addi	a0,a0,10
    44dc:	01051513          	slli	a0,a0,0x10
    44e0:	41055513          	srai	a0,a0,0x10
    44e4:	00000813          	li	a6,0
    44e8:	b85fe06f          	j	306c <core_bench_matrix+0x47c>
    44ec:	00a50513          	addi	a0,a0,10
    44f0:	01051513          	slli	a0,a0,0x10
    44f4:	41055513          	srai	a0,a0,0x10
    44f8:	00000893          	li	a7,0
    44fc:	e24ff06f          	j	3b20 <core_bench_matrix+0xf30>
    4500:	00a50513          	addi	a0,a0,10
    4504:	01051513          	slli	a0,a0,0x10
    4508:	41055513          	srai	a0,a0,0x10
    450c:	00000893          	li	a7,0
    4510:	a9cff06f          	j	37ac <core_bench_matrix+0xbbc>
    4514:	00a50513          	addi	a0,a0,10
    4518:	01051513          	slli	a0,a0,0x10
    451c:	41055513          	srai	a0,a0,0x10
    4520:	00000813          	li	a6,0
    4524:	e85fe06f          	j	33a8 <core_bench_matrix+0x7b8>
    4528:	00a50513          	addi	a0,a0,10
    452c:	01051513          	slli	a0,a0,0x10
    4530:	41055513          	srai	a0,a0,0x10
    4534:	00000813          	li	a6,0
    4538:	b0dfe06f          	j	3044 <core_bench_matrix+0x454>
    453c:	00a50513          	addi	a0,a0,10
    4540:	01051513          	slli	a0,a0,0x10
    4544:	41055513          	srai	a0,a0,0x10
    4548:	00000893          	li	a7,0
    454c:	a38ff06f          	j	3784 <core_bench_matrix+0xb94>
    4550:	00a50513          	addi	a0,a0,10
    4554:	01051513          	slli	a0,a0,0x10
    4558:	41055513          	srai	a0,a0,0x10
    455c:	00000893          	li	a7,0
    4560:	d98ff06f          	j	3af8 <core_bench_matrix+0xf08>
    4564:	00a50513          	addi	a0,a0,10
    4568:	01051513          	slli	a0,a0,0x10
    456c:	41055513          	srai	a0,a0,0x10
    4570:	00000813          	li	a6,0
    4574:	aa9fe06f          	j	301c <core_bench_matrix+0x42c>
    4578:	00a50513          	addi	a0,a0,10
    457c:	01051513          	slli	a0,a0,0x10
    4580:	41055513          	srai	a0,a0,0x10
    4584:	00000813          	li	a6,0
    4588:	df9fe06f          	j	3380 <core_bench_matrix+0x790>
    458c:	00a50513          	addi	a0,a0,10
    4590:	01051513          	slli	a0,a0,0x10
    4594:	41055513          	srai	a0,a0,0x10
    4598:	00000893          	li	a7,0
    459c:	9c0ff06f          	j	375c <core_bench_matrix+0xb6c>
    45a0:	00a50513          	addi	a0,a0,10
    45a4:	01051513          	slli	a0,a0,0x10
    45a8:	41055513          	srai	a0,a0,0x10
    45ac:	00000893          	li	a7,0
    45b0:	d20ff06f          	j	3ad0 <core_bench_matrix+0xee0>
    45b4:	00a50513          	addi	a0,a0,10
    45b8:	01051513          	slli	a0,a0,0x10
    45bc:	41055513          	srai	a0,a0,0x10
    45c0:	00000813          	li	a6,0
    45c4:	a31fe06f          	j	2ff4 <core_bench_matrix+0x404>
    45c8:	00a50513          	addi	a0,a0,10
    45cc:	01051513          	slli	a0,a0,0x10
    45d0:	41055513          	srai	a0,a0,0x10
    45d4:	00000813          	li	a6,0
    45d8:	d81fe06f          	j	3358 <core_bench_matrix+0x768>
    45dc:	00a50513          	addi	a0,a0,10
    45e0:	01051513          	slli	a0,a0,0x10
    45e4:	41055513          	srai	a0,a0,0x10
    45e8:	00000893          	li	a7,0
    45ec:	948ff06f          	j	3734 <core_bench_matrix+0xb44>
    45f0:	00a50513          	addi	a0,a0,10
    45f4:	01051513          	slli	a0,a0,0x10
    45f8:	41055513          	srai	a0,a0,0x10
    45fc:	00000893          	li	a7,0
    4600:	ca8ff06f          	j	3aa8 <core_bench_matrix+0xeb8>
    4604:	00a50513          	addi	a0,a0,10
    4608:	01051513          	slli	a0,a0,0x10
    460c:	41055513          	srai	a0,a0,0x10
    4610:	00000813          	li	a6,0
    4614:	9b9fe06f          	j	2fcc <core_bench_matrix+0x3dc>
    4618:	00a50513          	addi	a0,a0,10
    461c:	01051513          	slli	a0,a0,0x10
    4620:	41055513          	srai	a0,a0,0x10
    4624:	00000813          	li	a6,0
    4628:	d09fe06f          	j	3330 <core_bench_matrix+0x740>
    462c:	00812223          	sw	s0,4(sp)
    4630:	01e12423          	sw	t5,8(sp)
    4634:	00b12623          	sw	a1,12(sp)
    4638:	b9dfe06f          	j	31d4 <core_bench_matrix+0x5e4>
    463c:	00a50513          	addi	a0,a0,10
    4640:	01051513          	slli	a0,a0,0x10
    4644:	41055513          	srai	a0,a0,0x10
    4648:	00000893          	li	a7,0
    464c:	8c0ff06f          	j	370c <core_bench_matrix+0xb1c>
    4650:	00a50513          	addi	a0,a0,10
    4654:	01051513          	slli	a0,a0,0x10
    4658:	41055513          	srai	a0,a0,0x10
    465c:	00000893          	li	a7,0
    4660:	c20ff06f          	j	3a80 <core_bench_matrix+0xe90>
    4664:	00a50513          	addi	a0,a0,10
    4668:	01051513          	slli	a0,a0,0x10
    466c:	41055513          	srai	a0,a0,0x10
    4670:	00000813          	li	a6,0
    4674:	c95fe06f          	j	3308 <core_bench_matrix+0x718>
    4678:	00a50513          	addi	a0,a0,10
    467c:	01051513          	slli	a0,a0,0x10
    4680:	41055513          	srai	a0,a0,0x10
    4684:	00000813          	li	a6,0
    4688:	91dfe06f          	j	2fa4 <core_bench_matrix+0x3b4>
    468c:	00a50513          	addi	a0,a0,10
    4690:	01051513          	slli	a0,a0,0x10
    4694:	41055513          	srai	a0,a0,0x10
    4698:	00000893          	li	a7,0
    469c:	bbcff06f          	j	3a58 <core_bench_matrix+0xe68>
    46a0:	00a50513          	addi	a0,a0,10
    46a4:	01051513          	slli	a0,a0,0x10
    46a8:	41055513          	srai	a0,a0,0x10
    46ac:	00000893          	li	a7,0
    46b0:	834ff06f          	j	36e4 <core_bench_matrix+0xaf4>
    46b4:	00000593          	li	a1,0
    46b8:	00000513          	li	a0,0
    46bc:	724040ef          	jal	8de0 <crc16>
    46c0:	00050593          	mv	a1,a0
    46c4:	00000513          	li	a0,0
    46c8:	718040ef          	jal	8de0 <crc16>
    46cc:	00050593          	mv	a1,a0
    46d0:	00000513          	li	a0,0
    46d4:	70c040ef          	jal	8de0 <crc16>
    46d8:	00050593          	mv	a1,a0
    46dc:	00000513          	li	a0,0
    46e0:	700040ef          	jal	8de0 <crc16>
    46e4:	e04ff06f          	j	3ce8 <core_bench_matrix+0x10f8>
    46e8:	00000013          	nop
    46ec:	00000013          	nop

000046f0 <matrix_test>:
    46f0:	fa010113          	addi	sp,sp,-96
    46f4:	05212823          	sw	s2,80(sp)
    46f8:	04112e23          	sw	ra,92(sp)
    46fc:	fffff937          	lui	s2,0xfffff
    4700:	01276933          	or	s2,a4,s2
    4704:	00051463          	bnez	a0,470c <matrix_test+0x1c>
    4708:	2b50106f          	j	61bc <matrix_test+0x1acc>
    470c:	04912a23          	sw	s1,84(sp)
    4710:	00151493          	slli	s1,a0,0x1
    4714:	05512223          	sw	s5,68(sp)
    4718:	03912a23          	sw	s9,52(sp)
    471c:	40a00ab3          	neg	s5,a0
    4720:	00060c93          	mv	s9,a2
    4724:	00960633          	add	a2,a2,s1
    4728:	04812c23          	sw	s0,88(sp)
    472c:	05312623          	sw	s3,76(sp)
    4730:	03712e23          	sw	s7,60(sp)
    4734:	03812c23          	sw	s8,56(sp)
    4738:	00050413          	mv	s0,a0
    473c:	00070993          	mv	s3,a4
    4740:	05412423          	sw	s4,72(sp)
    4744:	05612023          	sw	s6,64(sp)
    4748:	03a12823          	sw	s10,48(sp)
    474c:	03b12623          	sw	s11,44(sp)
    4750:	00058c13          	mv	s8,a1
    4754:	00068b93          	mv	s7,a3
    4758:	00060713          	mv	a4,a2
    475c:	00000e93          	li	t4,0
    4760:	002a9513          	slli	a0,s5,0x2
    4764:	409705b3          	sub	a1,a4,s1
    4768:	40b706b3          	sub	a3,a4,a1
    476c:	ffe68693          	addi	a3,a3,-2
    4770:	0016d693          	srli	a3,a3,0x1
    4774:	00168693          	addi	a3,a3,1
    4778:	0076f693          	andi	a3,a3,7
    477c:	00058793          	mv	a5,a1
    4780:	0a068463          	beqz	a3,4828 <matrix_test+0x138>
    4784:	00100813          	li	a6,1
    4788:	09068663          	beq	a3,a6,4814 <matrix_test+0x124>
    478c:	00200813          	li	a6,2
    4790:	07068a63          	beq	a3,a6,4804 <matrix_test+0x114>
    4794:	00300813          	li	a6,3
    4798:	05068e63          	beq	a3,a6,47f4 <matrix_test+0x104>
    479c:	00400813          	li	a6,4
    47a0:	05068263          	beq	a3,a6,47e4 <matrix_test+0xf4>
    47a4:	00500813          	li	a6,5
    47a8:	03068663          	beq	a3,a6,47d4 <matrix_test+0xe4>
    47ac:	00600813          	li	a6,6
    47b0:	01068a63          	beq	a3,a6,47c4 <matrix_test+0xd4>
    47b4:	0005d683          	lhu	a3,0(a1)
    47b8:	00258793          	addi	a5,a1,2
    47bc:	00d986b3          	add	a3,s3,a3
    47c0:	00d59023          	sh	a3,0(a1)
    47c4:	0007d683          	lhu	a3,0(a5)
    47c8:	00278793          	addi	a5,a5,2
    47cc:	00d986b3          	add	a3,s3,a3
    47d0:	fed79f23          	sh	a3,-2(a5)
    47d4:	0007d683          	lhu	a3,0(a5)
    47d8:	00278793          	addi	a5,a5,2
    47dc:	00d986b3          	add	a3,s3,a3
    47e0:	fed79f23          	sh	a3,-2(a5)
    47e4:	0007d683          	lhu	a3,0(a5)
    47e8:	00278793          	addi	a5,a5,2
    47ec:	00d986b3          	add	a3,s3,a3
    47f0:	fed79f23          	sh	a3,-2(a5)
    47f4:	0007d683          	lhu	a3,0(a5)
    47f8:	00278793          	addi	a5,a5,2
    47fc:	00d986b3          	add	a3,s3,a3
    4800:	fed79f23          	sh	a3,-2(a5)
    4804:	0007d683          	lhu	a3,0(a5)
    4808:	00278793          	addi	a5,a5,2
    480c:	00d986b3          	add	a3,s3,a3
    4810:	fed79f23          	sh	a3,-2(a5)
    4814:	0007d683          	lhu	a3,0(a5)
    4818:	00278793          	addi	a5,a5,2
    481c:	00d986b3          	add	a3,s3,a3
    4820:	fed79f23          	sh	a3,-2(a5)
    4824:	06f70663          	beq	a4,a5,4890 <matrix_test+0x1a0>
    4828:	0007d283          	lhu	t0,0(a5)
    482c:	0027df83          	lhu	t6,2(a5)
    4830:	0047df03          	lhu	t5,4(a5)
    4834:	0067de03          	lhu	t3,6(a5)
    4838:	0087d303          	lhu	t1,8(a5)
    483c:	00a7d883          	lhu	a7,10(a5)
    4840:	00c7d803          	lhu	a6,12(a5)
    4844:	00e7d683          	lhu	a3,14(a5)
    4848:	005982b3          	add	t0,s3,t0
    484c:	01f98fb3          	add	t6,s3,t6
    4850:	01e98f33          	add	t5,s3,t5
    4854:	01c98e33          	add	t3,s3,t3
    4858:	00698333          	add	t1,s3,t1
    485c:	011988b3          	add	a7,s3,a7
    4860:	01098833          	add	a6,s3,a6
    4864:	00d986b3          	add	a3,s3,a3
    4868:	00579023          	sh	t0,0(a5)
    486c:	01f79123          	sh	t6,2(a5)
    4870:	01e79223          	sh	t5,4(a5)
    4874:	01c79323          	sh	t3,6(a5)
    4878:	00679423          	sh	t1,8(a5)
    487c:	01179523          	sh	a7,10(a5)
    4880:	01079623          	sh	a6,12(a5)
    4884:	00d79723          	sh	a3,14(a5)
    4888:	01078793          	addi	a5,a5,16
    488c:	f8f71ee3          	bne	a4,a5,4828 <matrix_test+0x138>
    4890:	001e8e93          	addi	t4,t4,1
    4894:	40a58733          	sub	a4,a1,a0
    4898:	edd416e3          	bne	s0,t4,4764 <matrix_test+0x74>
    489c:	00000e13          	li	t3,0
    48a0:	00000313          	li	t1,0
    48a4:	409605b3          	sub	a1,a2,s1
    48a8:	40b60733          	sub	a4,a2,a1
    48ac:	ffe70713          	addi	a4,a4,-2
    48b0:	00175713          	srli	a4,a4,0x1
    48b4:	00170713          	addi	a4,a4,1
    48b8:	002e1793          	slli	a5,t3,0x2
    48bc:	00777713          	andi	a4,a4,7
    48c0:	00058693          	mv	a3,a1
    48c4:	00fc07b3          	add	a5,s8,a5
    48c8:	0c070263          	beqz	a4,498c <matrix_test+0x29c>
    48cc:	00100813          	li	a6,1
    48d0:	0b070263          	beq	a4,a6,4974 <matrix_test+0x284>
    48d4:	00200813          	li	a6,2
    48d8:	09070463          	beq	a4,a6,4960 <matrix_test+0x270>
    48dc:	00300813          	li	a6,3
    48e0:	07070663          	beq	a4,a6,494c <matrix_test+0x25c>
    48e4:	00400813          	li	a6,4
    48e8:	05070863          	beq	a4,a6,4938 <matrix_test+0x248>
    48ec:	00500813          	li	a6,5
    48f0:	03070a63          	beq	a4,a6,4924 <matrix_test+0x234>
    48f4:	00600813          	li	a6,6
    48f8:	01070c63          	beq	a4,a6,4910 <matrix_test+0x220>
    48fc:	00059703          	lh	a4,0(a1)
    4900:	00258693          	addi	a3,a1,2
    4904:	00478793          	addi	a5,a5,4
    4908:	03370733          	mul	a4,a4,s3
    490c:	fee7ae23          	sw	a4,-4(a5)
    4910:	00069703          	lh	a4,0(a3)
    4914:	00478793          	addi	a5,a5,4
    4918:	00268693          	addi	a3,a3,2
    491c:	03370733          	mul	a4,a4,s3
    4920:	fee7ae23          	sw	a4,-4(a5)
    4924:	00069703          	lh	a4,0(a3)
    4928:	00478793          	addi	a5,a5,4
    492c:	00268693          	addi	a3,a3,2
    4930:	03370733          	mul	a4,a4,s3
    4934:	fee7ae23          	sw	a4,-4(a5)
    4938:	00069703          	lh	a4,0(a3)
    493c:	00478793          	addi	a5,a5,4
    4940:	00268693          	addi	a3,a3,2
    4944:	03370733          	mul	a4,a4,s3
    4948:	fee7ae23          	sw	a4,-4(a5)
    494c:	00069703          	lh	a4,0(a3)
    4950:	00478793          	addi	a5,a5,4
    4954:	00268693          	addi	a3,a3,2
    4958:	03370733          	mul	a4,a4,s3
    495c:	fee7ae23          	sw	a4,-4(a5)
    4960:	00069703          	lh	a4,0(a3)
    4964:	00478793          	addi	a5,a5,4
    4968:	00268693          	addi	a3,a3,2
    496c:	03370733          	mul	a4,a4,s3
    4970:	fee7ae23          	sw	a4,-4(a5)
    4974:	00069703          	lh	a4,0(a3)
    4978:	00268693          	addi	a3,a3,2
    497c:	00478793          	addi	a5,a5,4
    4980:	03370733          	mul	a4,a4,s3
    4984:	fee7ae23          	sw	a4,-4(a5)
    4988:	06d60863          	beq	a2,a3,49f8 <matrix_test+0x308>
    498c:	00069383          	lh	t2,0(a3)
    4990:	00269283          	lh	t0,2(a3)
    4994:	00469f83          	lh	t6,4(a3)
    4998:	00669f03          	lh	t5,6(a3)
    499c:	00869e83          	lh	t4,8(a3)
    49a0:	00a69883          	lh	a7,10(a3)
    49a4:	00c69803          	lh	a6,12(a3)
    49a8:	00e69703          	lh	a4,14(a3)
    49ac:	033383b3          	mul	t2,t2,s3
    49b0:	01068693          	addi	a3,a3,16
    49b4:	02078793          	addi	a5,a5,32
    49b8:	033282b3          	mul	t0,t0,s3
    49bc:	fe77a023          	sw	t2,-32(a5)
    49c0:	033f8fb3          	mul	t6,t6,s3
    49c4:	fe57a223          	sw	t0,-28(a5)
    49c8:	033f0f33          	mul	t5,t5,s3
    49cc:	fff7a423          	sw	t6,-24(a5)
    49d0:	033e8eb3          	mul	t4,t4,s3
    49d4:	ffe7a623          	sw	t5,-20(a5)
    49d8:	033888b3          	mul	a7,a7,s3
    49dc:	ffd7a823          	sw	t4,-16(a5)
    49e0:	03380833          	mul	a6,a6,s3
    49e4:	ff17aa23          	sw	a7,-12(a5)
    49e8:	03370733          	mul	a4,a4,s3
    49ec:	ff07ac23          	sw	a6,-8(a5)
    49f0:	fee7ae23          	sw	a4,-4(a5)
    49f4:	f8d61ce3          	bne	a2,a3,498c <matrix_test+0x29c>
    49f8:	00130313          	addi	t1,t1,1
    49fc:	008e0e33          	add	t3,t3,s0
    4a00:	40a58633          	sub	a2,a1,a0
    4a04:	ea6410e3          	bne	s0,t1,48a4 <matrix_test+0x1b4>
    4a08:	00241d13          	slli	s10,s0,0x2
    4a0c:	01ac0a33          	add	s4,s8,s10
    4a10:	002a9b13          	slli	s6,s5,0x2
    4a14:	000a0713          	mv	a4,s4
    4a18:	00000893          	li	a7,0
    4a1c:	00000813          	li	a6,0
    4a20:	00000513          	li	a0,0
    4a24:	00000613          	li	a2,0
    4a28:	003a9a93          	slli	s5,s5,0x3
    4a2c:	00eb05b3          	add	a1,s6,a4
    4a30:	40b707b3          	sub	a5,a4,a1
    4a34:	ffc78793          	addi	a5,a5,-4
    4a38:	0027d793          	srli	a5,a5,0x2
    4a3c:	00178793          	addi	a5,a5,1
    4a40:	0077f793          	andi	a5,a5,7
    4a44:	00058693          	mv	a3,a1
    4a48:	6a078ae3          	beqz	a5,58fc <matrix_test+0x120c>
    4a4c:	00100313          	li	t1,1
    4a50:	10678e63          	beq	a5,t1,4b6c <matrix_test+0x47c>
    4a54:	00200313          	li	t1,2
    4a58:	0e678663          	beq	a5,t1,4b44 <matrix_test+0x454>
    4a5c:	00300313          	li	t1,3
    4a60:	0a678e63          	beq	a5,t1,4b1c <matrix_test+0x42c>
    4a64:	00400313          	li	t1,4
    4a68:	08678663          	beq	a5,t1,4af4 <matrix_test+0x404>
    4a6c:	00500313          	li	t1,5
    4a70:	04678e63          	beq	a5,t1,4acc <matrix_test+0x3dc>
    4a74:	00600313          	li	t1,6
    4a78:	02678663          	beq	a5,t1,4aa4 <matrix_test+0x3b4>
    4a7c:	00088793          	mv	a5,a7
    4a80:	0005a883          	lw	a7,0(a1)
    4a84:	01180833          	add	a6,a6,a7
    4a88:	01095463          	bge	s2,a6,4a90 <matrix_test+0x3a0>
    4a8c:	6f40106f          	j	6180 <matrix_test+0x1a90>
    4a90:	0117a7b3          	slt	a5,a5,a7
    4a94:	00f507b3          	add	a5,a0,a5
    4a98:	01079513          	slli	a0,a5,0x10
    4a9c:	41055513          	srai	a0,a0,0x10
    4aa0:	00458693          	addi	a3,a1,4
    4aa4:	00088793          	mv	a5,a7
    4aa8:	0006a883          	lw	a7,0(a3)
    4aac:	01180833          	add	a6,a6,a7
    4ab0:	01095463          	bge	s2,a6,4ab8 <matrix_test+0x3c8>
    4ab4:	6580106f          	j	610c <matrix_test+0x1a1c>
    4ab8:	0117a7b3          	slt	a5,a5,a7
    4abc:	00f507b3          	add	a5,a0,a5
    4ac0:	01079513          	slli	a0,a5,0x10
    4ac4:	41055513          	srai	a0,a0,0x10
    4ac8:	00468693          	addi	a3,a3,4
    4acc:	00088793          	mv	a5,a7
    4ad0:	0006a883          	lw	a7,0(a3)
    4ad4:	01180833          	add	a6,a6,a7
    4ad8:	01095463          	bge	s2,a6,4ae0 <matrix_test+0x3f0>
    4adc:	5e00106f          	j	60bc <matrix_test+0x19cc>
    4ae0:	0117a7b3          	slt	a5,a5,a7
    4ae4:	00f507b3          	add	a5,a0,a5
    4ae8:	01079513          	slli	a0,a5,0x10
    4aec:	41055513          	srai	a0,a0,0x10
    4af0:	00468693          	addi	a3,a3,4
    4af4:	00088793          	mv	a5,a7
    4af8:	0006a883          	lw	a7,0(a3)
    4afc:	01180833          	add	a6,a6,a7
    4b00:	01095463          	bge	s2,a6,4b08 <matrix_test+0x418>
    4b04:	5680106f          	j	606c <matrix_test+0x197c>
    4b08:	0117a7b3          	slt	a5,a5,a7
    4b0c:	00f507b3          	add	a5,a0,a5
    4b10:	01079513          	slli	a0,a5,0x10
    4b14:	41055513          	srai	a0,a0,0x10
    4b18:	00468693          	addi	a3,a3,4
    4b1c:	00088793          	mv	a5,a7
    4b20:	0006a883          	lw	a7,0(a3)
    4b24:	01180833          	add	a6,a6,a7
    4b28:	01095463          	bge	s2,a6,4b30 <matrix_test+0x440>
    4b2c:	5040106f          	j	6030 <matrix_test+0x1940>
    4b30:	0117a7b3          	slt	a5,a5,a7
    4b34:	00f507b3          	add	a5,a0,a5
    4b38:	01079513          	slli	a0,a5,0x10
    4b3c:	41055513          	srai	a0,a0,0x10
    4b40:	00468693          	addi	a3,a3,4
    4b44:	00088793          	mv	a5,a7
    4b48:	0006a883          	lw	a7,0(a3)
    4b4c:	01180833          	add	a6,a6,a7
    4b50:	01095463          	bge	s2,a6,4b58 <matrix_test+0x468>
    4b54:	48c0106f          	j	5fe0 <matrix_test+0x18f0>
    4b58:	0117a7b3          	slt	a5,a5,a7
    4b5c:	00f507b3          	add	a5,a0,a5
    4b60:	01079513          	slli	a0,a5,0x10
    4b64:	41055513          	srai	a0,a0,0x10
    4b68:	00468693          	addi	a3,a3,4
    4b6c:	00088793          	mv	a5,a7
    4b70:	0006a883          	lw	a7,0(a3)
    4b74:	01180833          	add	a6,a6,a7
    4b78:	01095463          	bge	s2,a6,4b80 <matrix_test+0x490>
    4b7c:	4000106f          	j	5f7c <matrix_test+0x188c>
    4b80:	0117a7b3          	slt	a5,a5,a7
    4b84:	00f507b3          	add	a5,a0,a5
    4b88:	01079513          	slli	a0,a5,0x10
    4b8c:	41055513          	srai	a0,a0,0x10
    4b90:	00468693          	addi	a3,a3,4
    4b94:	56d714e3          	bne	a4,a3,58fc <matrix_test+0x120c>
    4b98:	00160613          	addi	a2,a2,1
    4b9c:	41558733          	sub	a4,a1,s5
    4ba0:	e8c416e3          	bne	s0,a2,4a2c <matrix_test+0x33c>
    4ba4:	00000593          	li	a1,0
    4ba8:	238040ef          	jal	8de0 <crc16>
    4bac:	000c0593          	mv	a1,s8
    4bb0:	00000f13          	li	t5,0
    4bb4:	009b8fb3          	add	t6,s7,s1
    4bb8:	00a12a23          	sw	a0,20(sp)
    4bbc:	00912c23          	sw	s1,24(sp)
    4bc0:	417f8733          	sub	a4,t6,s7
    4bc4:	ffe70713          	addi	a4,a4,-2
    4bc8:	00175713          	srli	a4,a4,0x1
    4bcc:	00170713          	addi	a4,a4,1
    4bd0:	001f1693          	slli	a3,t5,0x1
    4bd4:	00777713          	andi	a4,a4,7
    4bd8:	000b8613          	mv	a2,s7
    4bdc:	00000793          	li	a5,0
    4be0:	019686b3          	add	a3,a3,s9
    4be4:	00071463          	bnez	a4,4bec <matrix_test+0x4fc>
    4be8:	54c0106f          	j	6134 <matrix_test+0x1a44>
    4bec:	00100513          	li	a0,1
    4bf0:	0aa70c63          	beq	a4,a0,4ca8 <matrix_test+0x5b8>
    4bf4:	00200513          	li	a0,2
    4bf8:	08a70c63          	beq	a4,a0,4c90 <matrix_test+0x5a0>
    4bfc:	00300513          	li	a0,3
    4c00:	06a70c63          	beq	a4,a0,4c78 <matrix_test+0x588>
    4c04:	00400513          	li	a0,4
    4c08:	04a70c63          	beq	a4,a0,4c60 <matrix_test+0x570>
    4c0c:	00500513          	li	a0,5
    4c10:	02a70c63          	beq	a4,a0,4c48 <matrix_test+0x558>
    4c14:	00600513          	li	a0,6
    4c18:	00a70c63          	beq	a4,a0,4c30 <matrix_test+0x540>
    4c1c:	00069783          	lh	a5,0(a3)
    4c20:	000b9703          	lh	a4,0(s7)
    4c24:	00268693          	addi	a3,a3,2
    4c28:	002b8613          	addi	a2,s7,2
    4c2c:	02e787b3          	mul	a5,a5,a4
    4c30:	00069703          	lh	a4,0(a3)
    4c34:	00061503          	lh	a0,0(a2)
    4c38:	00268693          	addi	a3,a3,2
    4c3c:	00260613          	addi	a2,a2,2
    4c40:	02a70733          	mul	a4,a4,a0
    4c44:	00e787b3          	add	a5,a5,a4
    4c48:	00069703          	lh	a4,0(a3)
    4c4c:	00061503          	lh	a0,0(a2)
    4c50:	00268693          	addi	a3,a3,2
    4c54:	00260613          	addi	a2,a2,2
    4c58:	02a70733          	mul	a4,a4,a0
    4c5c:	00e787b3          	add	a5,a5,a4
    4c60:	00069703          	lh	a4,0(a3)
    4c64:	00061503          	lh	a0,0(a2)
    4c68:	00268693          	addi	a3,a3,2
    4c6c:	00260613          	addi	a2,a2,2
    4c70:	02a70733          	mul	a4,a4,a0
    4c74:	00e787b3          	add	a5,a5,a4
    4c78:	00069703          	lh	a4,0(a3)
    4c7c:	00061503          	lh	a0,0(a2)
    4c80:	00268693          	addi	a3,a3,2
    4c84:	00260613          	addi	a2,a2,2
    4c88:	02a70733          	mul	a4,a4,a0
    4c8c:	00e787b3          	add	a5,a5,a4
    4c90:	00069703          	lh	a4,0(a3)
    4c94:	00061503          	lh	a0,0(a2)
    4c98:	00268693          	addi	a3,a3,2
    4c9c:	00260613          	addi	a2,a2,2
    4ca0:	02a70733          	mul	a4,a4,a0
    4ca4:	00e787b3          	add	a5,a5,a4
    4ca8:	00069703          	lh	a4,0(a3)
    4cac:	00061503          	lh	a0,0(a2)
    4cb0:	00260613          	addi	a2,a2,2
    4cb4:	00268693          	addi	a3,a3,2
    4cb8:	02a70733          	mul	a4,a4,a0
    4cbc:	00e787b3          	add	a5,a5,a4
    4cc0:	0acf8463          	beq	t6,a2,4d68 <matrix_test+0x678>
    4cc4:	01e12423          	sw	t5,8(sp)
    4cc8:	00b12623          	sw	a1,12(sp)
    4ccc:	00812823          	sw	s0,16(sp)
    4cd0:	00061503          	lh	a0,0(a2)
    4cd4:	00069703          	lh	a4,0(a3)
    4cd8:	00269d83          	lh	s11,2(a3)
    4cdc:	00261e03          	lh	t3,2(a2)
    4ce0:	00469303          	lh	t1,4(a3)
    4ce4:	00461383          	lh	t2,4(a2)
    4ce8:	02a70733          	mul	a4,a4,a0
    4cec:	00669883          	lh	a7,6(a3)
    4cf0:	00661483          	lh	s1,6(a2)
    4cf4:	00869403          	lh	s0,8(a3)
    4cf8:	00861f03          	lh	t5,8(a2)
    4cfc:	00a69e83          	lh	t4,10(a3)
    4d00:	00a61583          	lh	a1,10(a2)
    4d04:	00c69803          	lh	a6,12(a3)
    4d08:	00c61283          	lh	t0,12(a2)
    4d0c:	00e69503          	lh	a0,14(a3)
    4d10:	03cd8e33          	mul	t3,s11,t3
    4d14:	00e78733          	add	a4,a5,a4
    4d18:	00e61d83          	lh	s11,14(a2)
    4d1c:	01060613          	addi	a2,a2,16
    4d20:	01068693          	addi	a3,a3,16
    4d24:	02730333          	mul	t1,t1,t2
    4d28:	01c70733          	add	a4,a4,t3
    4d2c:	029888b3          	mul	a7,a7,s1
    4d30:	006707b3          	add	a5,a4,t1
    4d34:	03e40733          	mul	a4,s0,t5
    4d38:	011787b3          	add	a5,a5,a7
    4d3c:	02be88b3          	mul	a7,t4,a1
    4d40:	00e787b3          	add	a5,a5,a4
    4d44:	02580833          	mul	a6,a6,t0
    4d48:	011787b3          	add	a5,a5,a7
    4d4c:	03b50533          	mul	a0,a0,s11
    4d50:	010787b3          	add	a5,a5,a6
    4d54:	00a787b3          	add	a5,a5,a0
    4d58:	f6cf9ce3          	bne	t6,a2,4cd0 <matrix_test+0x5e0>
    4d5c:	00812f03          	lw	t5,8(sp)
    4d60:	00c12583          	lw	a1,12(sp)
    4d64:	01012403          	lw	s0,16(sp)
    4d68:	00f5a023          	sw	a5,0(a1)
    4d6c:	00458593          	addi	a1,a1,4
    4d70:	008f0f33          	add	t5,t5,s0
    4d74:	e4ba16e3          	bne	s4,a1,4bc0 <matrix_test+0x4d0>
    4d78:	01412603          	lw	a2,20(sp)
    4d7c:	01812483          	lw	s1,24(sp)
    4d80:	00000893          	li	a7,0
    4d84:	00000813          	li	a6,0
    4d88:	00000513          	li	a0,0
    4d8c:	00000693          	li	a3,0
    4d90:	014b05b3          	add	a1,s6,s4
    4d94:	40ba07b3          	sub	a5,s4,a1
    4d98:	ffc78793          	addi	a5,a5,-4
    4d9c:	0027d793          	srli	a5,a5,0x2
    4da0:	00178793          	addi	a5,a5,1
    4da4:	0077f793          	andi	a5,a5,7
    4da8:	00058713          	mv	a4,a1
    4dac:	50078ce3          	beqz	a5,5ac4 <matrix_test+0x13d4>
    4db0:	00100313          	li	t1,1
    4db4:	10678e63          	beq	a5,t1,4ed0 <matrix_test+0x7e0>
    4db8:	00200313          	li	t1,2
    4dbc:	0e678663          	beq	a5,t1,4ea8 <matrix_test+0x7b8>
    4dc0:	00300313          	li	t1,3
    4dc4:	0a678e63          	beq	a5,t1,4e80 <matrix_test+0x790>
    4dc8:	00400313          	li	t1,4
    4dcc:	08678663          	beq	a5,t1,4e58 <matrix_test+0x768>
    4dd0:	00500313          	li	t1,5
    4dd4:	04678e63          	beq	a5,t1,4e30 <matrix_test+0x740>
    4dd8:	00600313          	li	t1,6
    4ddc:	02678663          	beq	a5,t1,4e08 <matrix_test+0x718>
    4de0:	00088793          	mv	a5,a7
    4de4:	0005a883          	lw	a7,0(a1)
    4de8:	01180833          	add	a6,a6,a7
    4dec:	01095463          	bge	s2,a6,4df4 <matrix_test+0x704>
    4df0:	37c0106f          	j	616c <matrix_test+0x1a7c>
    4df4:	0117a7b3          	slt	a5,a5,a7
    4df8:	00f507b3          	add	a5,a0,a5
    4dfc:	01079513          	slli	a0,a5,0x10
    4e00:	41055513          	srai	a0,a0,0x10
    4e04:	00458713          	addi	a4,a1,4
    4e08:	00088793          	mv	a5,a7
    4e0c:	00072883          	lw	a7,0(a4)
    4e10:	01180833          	add	a6,a6,a7
    4e14:	01095463          	bge	s2,a6,4e1c <matrix_test+0x72c>
    4e18:	3080106f          	j	6120 <matrix_test+0x1a30>
    4e1c:	0117a7b3          	slt	a5,a5,a7
    4e20:	00f507b3          	add	a5,a0,a5
    4e24:	01079513          	slli	a0,a5,0x10
    4e28:	41055513          	srai	a0,a0,0x10
    4e2c:	00470713          	addi	a4,a4,4
    4e30:	00088793          	mv	a5,a7
    4e34:	00072883          	lw	a7,0(a4)
    4e38:	01180833          	add	a6,a6,a7
    4e3c:	01095463          	bge	s2,a6,4e44 <matrix_test+0x754>
    4e40:	2900106f          	j	60d0 <matrix_test+0x19e0>
    4e44:	0117a7b3          	slt	a5,a5,a7
    4e48:	00f507b3          	add	a5,a0,a5
    4e4c:	01079513          	slli	a0,a5,0x10
    4e50:	41055513          	srai	a0,a0,0x10
    4e54:	00470713          	addi	a4,a4,4
    4e58:	00088793          	mv	a5,a7
    4e5c:	00072883          	lw	a7,0(a4)
    4e60:	01180833          	add	a6,a6,a7
    4e64:	01095463          	bge	s2,a6,4e6c <matrix_test+0x77c>
    4e68:	2180106f          	j	6080 <matrix_test+0x1990>
    4e6c:	0117a7b3          	slt	a5,a5,a7
    4e70:	00f507b3          	add	a5,a0,a5
    4e74:	01079513          	slli	a0,a5,0x10
    4e78:	41055513          	srai	a0,a0,0x10
    4e7c:	00470713          	addi	a4,a4,4
    4e80:	00088793          	mv	a5,a7
    4e84:	00072883          	lw	a7,0(a4)
    4e88:	01180833          	add	a6,a6,a7
    4e8c:	01095463          	bge	s2,a6,4e94 <matrix_test+0x7a4>
    4e90:	18c0106f          	j	601c <matrix_test+0x192c>
    4e94:	0117a7b3          	slt	a5,a5,a7
    4e98:	00f507b3          	add	a5,a0,a5
    4e9c:	01079513          	slli	a0,a5,0x10
    4ea0:	41055513          	srai	a0,a0,0x10
    4ea4:	00470713          	addi	a4,a4,4
    4ea8:	00088793          	mv	a5,a7
    4eac:	00072883          	lw	a7,0(a4)
    4eb0:	01180833          	add	a6,a6,a7
    4eb4:	01095463          	bge	s2,a6,4ebc <matrix_test+0x7cc>
    4eb8:	1140106f          	j	5fcc <matrix_test+0x18dc>
    4ebc:	0117a7b3          	slt	a5,a5,a7
    4ec0:	00f507b3          	add	a5,a0,a5
    4ec4:	01079513          	slli	a0,a5,0x10
    4ec8:	41055513          	srai	a0,a0,0x10
    4ecc:	00470713          	addi	a4,a4,4
    4ed0:	00088793          	mv	a5,a7
    4ed4:	00072883          	lw	a7,0(a4)
    4ed8:	01180833          	add	a6,a6,a7
    4edc:	01095463          	bge	s2,a6,4ee4 <matrix_test+0x7f4>
    4ee0:	0b00106f          	j	5f90 <matrix_test+0x18a0>
    4ee4:	0117a7b3          	slt	a5,a5,a7
    4ee8:	00f507b3          	add	a5,a0,a5
    4eec:	01079513          	slli	a0,a5,0x10
    4ef0:	41055513          	srai	a0,a0,0x10
    4ef4:	00470713          	addi	a4,a4,4
    4ef8:	3cea16e3          	bne	s4,a4,5ac4 <matrix_test+0x13d4>
    4efc:	00168693          	addi	a3,a3,1
    4f00:	41558a33          	sub	s4,a1,s5
    4f04:	e8d416e3          	bne	s0,a3,4d90 <matrix_test+0x6a0>
    4f08:	00060593          	mv	a1,a2
    4f0c:	6d5030ef          	jal	8de0 <crc16>
    4f10:	000c8813          	mv	a6,s9
    4f14:	00000713          	li	a4,0
    4f18:	00000a13          	li	s4,0
    4f1c:	009c88b3          	add	a7,s9,s1
    4f20:	00050693          	mv	a3,a0
    4f24:	00271593          	slli	a1,a4,0x2
    4f28:	000a0293          	mv	t0,s4
    4f2c:	000b8513          	mv	a0,s7
    4f30:	00000313          	li	t1,0
    4f34:	00bc05b3          	add	a1,s8,a1
    4f38:	00090393          	mv	t2,s2
    4f3c:	00068f93          	mv	t6,a3
    4f40:	00070a13          	mv	s4,a4
    4f44:	41088633          	sub	a2,a7,a6
    4f48:	ffe60613          	addi	a2,a2,-2
    4f4c:	00165613          	srli	a2,a2,0x1
    4f50:	00160613          	addi	a2,a2,1
    4f54:	00767613          	andi	a2,a2,7
    4f58:	00050793          	mv	a5,a0
    4f5c:	00080713          	mv	a4,a6
    4f60:	00000693          	li	a3,0
    4f64:	0c060e63          	beqz	a2,5040 <matrix_test+0x950>
    4f68:	00100e13          	li	t3,1
    4f6c:	0bc60c63          	beq	a2,t3,5024 <matrix_test+0x934>
    4f70:	00200e13          	li	t3,2
    4f74:	09c60c63          	beq	a2,t3,500c <matrix_test+0x91c>
    4f78:	00300e13          	li	t3,3
    4f7c:	07c60c63          	beq	a2,t3,4ff4 <matrix_test+0x904>
    4f80:	00400e13          	li	t3,4
    4f84:	05c60c63          	beq	a2,t3,4fdc <matrix_test+0x8ec>
    4f88:	00500e13          	li	t3,5
    4f8c:	03c60c63          	beq	a2,t3,4fc4 <matrix_test+0x8d4>
    4f90:	00600e13          	li	t3,6
    4f94:	01c60c63          	beq	a2,t3,4fac <matrix_test+0x8bc>
    4f98:	00081683          	lh	a3,0(a6)
    4f9c:	00051603          	lh	a2,0(a0)
    4fa0:	00280713          	addi	a4,a6,2
    4fa4:	009507b3          	add	a5,a0,s1
    4fa8:	02c686b3          	mul	a3,a3,a2
    4fac:	00071603          	lh	a2,0(a4)
    4fb0:	00079e03          	lh	t3,0(a5)
    4fb4:	00270713          	addi	a4,a4,2
    4fb8:	009787b3          	add	a5,a5,s1
    4fbc:	03c60633          	mul	a2,a2,t3
    4fc0:	00c686b3          	add	a3,a3,a2
    4fc4:	00071603          	lh	a2,0(a4)
    4fc8:	00079e03          	lh	t3,0(a5)
    4fcc:	00270713          	addi	a4,a4,2
    4fd0:	009787b3          	add	a5,a5,s1
    4fd4:	03c60633          	mul	a2,a2,t3
    4fd8:	00c686b3          	add	a3,a3,a2
    4fdc:	00071603          	lh	a2,0(a4)
    4fe0:	00079e03          	lh	t3,0(a5)
    4fe4:	00270713          	addi	a4,a4,2
    4fe8:	009787b3          	add	a5,a5,s1
    4fec:	03c60633          	mul	a2,a2,t3
    4ff0:	00c686b3          	add	a3,a3,a2
    4ff4:	00071603          	lh	a2,0(a4)
    4ff8:	00079e03          	lh	t3,0(a5)
    4ffc:	00270713          	addi	a4,a4,2
    5000:	009787b3          	add	a5,a5,s1
    5004:	03c60633          	mul	a2,a2,t3
    5008:	00c686b3          	add	a3,a3,a2
    500c:	00071603          	lh	a2,0(a4)
    5010:	00079e03          	lh	t3,0(a5)
    5014:	00270713          	addi	a4,a4,2
    5018:	009787b3          	add	a5,a5,s1
    501c:	03c60633          	mul	a2,a2,t3
    5020:	00c686b3          	add	a3,a3,a2
    5024:	00071603          	lh	a2,0(a4)
    5028:	00079e03          	lh	t3,0(a5)
    502c:	00270713          	addi	a4,a4,2
    5030:	009787b3          	add	a5,a5,s1
    5034:	03c60633          	mul	a2,a2,t3
    5038:	00c686b3          	add	a3,a3,a2
    503c:	0ce88e63          	beq	a7,a4,5118 <matrix_test+0xa28>
    5040:	00079e03          	lh	t3,0(a5)
    5044:	00071d83          	lh	s11,0(a4)
    5048:	009787b3          	add	a5,a5,s1
    504c:	00079603          	lh	a2,0(a5)
    5050:	00271f03          	lh	t5,2(a4)
    5054:	03cd8db3          	mul	s11,s11,t3
    5058:	009787b3          	add	a5,a5,s1
    505c:	00079b03          	lh	s6,0(a5)
    5060:	009787b3          	add	a5,a5,s1
    5064:	00671e03          	lh	t3,6(a4)
    5068:	00079903          	lh	s2,0(a5)
    506c:	00471e83          	lh	t4,4(a4)
    5070:	01c12423          	sw	t3,8(sp)
    5074:	01212623          	sw	s2,12(sp)
    5078:	009787b3          	add	a5,a5,s1
    507c:	02cf0f33          	mul	t5,t5,a2
    5080:	01b686b3          	add	a3,a3,s11
    5084:	00871a83          	lh	s5,8(a4)
    5088:	00079e03          	lh	t3,0(a5)
    508c:	009787b3          	add	a5,a5,s1
    5090:	00a71903          	lh	s2,10(a4)
    5094:	01512823          	sw	s5,16(sp)
    5098:	01c12a23          	sw	t3,20(sp)
    509c:	00079a83          	lh	s5,0(a5)
    50a0:	01212c23          	sw	s2,24(sp)
    50a4:	036e8eb3          	mul	t4,t4,s6
    50a8:	01e686b3          	add	a3,a3,t5
    50ac:	00c12b03          	lw	s6,12(sp)
    50b0:	00812f03          	lw	t5,8(sp)
    50b4:	01512e23          	sw	s5,28(sp)
    50b8:	009787b3          	add	a5,a5,s1
    50bc:	00c71e03          	lh	t3,12(a4)
    50c0:	00079a83          	lh	s5,0(a5)
    50c4:	009787b3          	add	a5,a5,s1
    50c8:	00e71603          	lh	a2,14(a4)
    50cc:	036f0f33          	mul	t5,t5,s6
    50d0:	01d686b3          	add	a3,a3,t4
    50d4:	01412b03          	lw	s6,20(sp)
    50d8:	01012e83          	lw	t4,16(sp)
    50dc:	00079903          	lh	s2,0(a5)
    50e0:	01070713          	addi	a4,a4,16
    50e4:	009787b3          	add	a5,a5,s1
    50e8:	036e8eb3          	mul	t4,t4,s6
    50ec:	01e686b3          	add	a3,a3,t5
    50f0:	01c12b03          	lw	s6,28(sp)
    50f4:	01812f03          	lw	t5,24(sp)
    50f8:	036f0f33          	mul	t5,t5,s6
    50fc:	01d686b3          	add	a3,a3,t4
    5100:	035e0e33          	mul	t3,t3,s5
    5104:	01e686b3          	add	a3,a3,t5
    5108:	03260633          	mul	a2,a2,s2
    510c:	01c686b3          	add	a3,a3,t3
    5110:	00c686b3          	add	a3,a3,a2
    5114:	f2e896e3          	bne	a7,a4,5040 <matrix_test+0x950>
    5118:	00d5a023          	sw	a3,0(a1)
    511c:	00130313          	addi	t1,t1,1
    5120:	00458593          	addi	a1,a1,4
    5124:	00250513          	addi	a0,a0,2
    5128:	e0641ee3          	bne	s0,t1,4f44 <matrix_test+0x854>
    512c:	000a0713          	mv	a4,s4
    5130:	00128a13          	addi	s4,t0,1
    5134:	00038913          	mv	s2,t2
    5138:	000f8693          	mv	a3,t6
    513c:	00980833          	add	a6,a6,s1
    5140:	00870733          	add	a4,a4,s0
    5144:	009888b3          	add	a7,a7,s1
    5148:	dd441ee3          	bne	s0,s4,4f24 <matrix_test+0x834>
    514c:	000f8593          	mv	a1,t6
    5150:	00000613          	li	a2,0
    5154:	00000e93          	li	t4,0
    5158:	00000893          	li	a7,0
    515c:	00000513          	li	a0,0
    5160:	00000693          	li	a3,0
    5164:	00261313          	slli	t1,a2,0x2
    5168:	006c0333          	add	t1,s8,t1
    516c:	000e8713          	mv	a4,t4
    5170:	00032e83          	lw	t4,0(t1)
    5174:	fff40793          	addi	a5,s0,-1
    5178:	0077f793          	andi	a5,a5,7
    517c:	01d888b3          	add	a7,a7,t4
    5180:	5f1954e3          	bge	s2,a7,5f68 <matrix_test+0x1878>
    5184:	00a50513          	addi	a0,a0,10
    5188:	01051513          	slli	a0,a0,0x10
    518c:	41055513          	srai	a0,a0,0x10
    5190:	00000893          	li	a7,0
    5194:	00100813          	li	a6,1
    5198:	00430713          	addi	a4,t1,4
    519c:	14887863          	bgeu	a6,s0,52ec <matrix_test+0xbfc>
    51a0:	2e078ae3          	beqz	a5,5c94 <matrix_test+0x15a4>
    51a4:	11078e63          	beq	a5,a6,52c0 <matrix_test+0xbd0>
    51a8:	00200e13          	li	t3,2
    51ac:	0fc78663          	beq	a5,t3,5298 <matrix_test+0xba8>
    51b0:	00300e13          	li	t3,3
    51b4:	0bc78e63          	beq	a5,t3,5270 <matrix_test+0xb80>
    51b8:	00400e13          	li	t3,4
    51bc:	09c78663          	beq	a5,t3,5248 <matrix_test+0xb58>
    51c0:	00500e13          	li	t3,5
    51c4:	05c78e63          	beq	a5,t3,5220 <matrix_test+0xb30>
    51c8:	00600e13          	li	t3,6
    51cc:	03c78663          	beq	a5,t3,51f8 <matrix_test+0xb08>
    51d0:	000e8793          	mv	a5,t4
    51d4:	00432e83          	lw	t4,4(t1)
    51d8:	01d888b3          	add	a7,a7,t4
    51dc:	7d1946e3          	blt	s2,a7,61a8 <matrix_test+0x1ab8>
    51e0:	01d7a7b3          	slt	a5,a5,t4
    51e4:	00f507b3          	add	a5,a0,a5
    51e8:	01079513          	slli	a0,a5,0x10
    51ec:	41055513          	srai	a0,a0,0x10
    51f0:	00180813          	addi	a6,a6,1
    51f4:	00470713          	addi	a4,a4,4
    51f8:	000e8793          	mv	a5,t4
    51fc:	00072e83          	lw	t4,0(a4)
    5200:	01d888b3          	add	a7,a7,t4
    5204:	751940e3          	blt	s2,a7,6144 <matrix_test+0x1a54>
    5208:	01d7a7b3          	slt	a5,a5,t4
    520c:	00f507b3          	add	a5,a0,a5
    5210:	01079513          	slli	a0,a5,0x10
    5214:	41055513          	srai	a0,a0,0x10
    5218:	00180813          	addi	a6,a6,1
    521c:	00470713          	addi	a4,a4,4
    5220:	000e8793          	mv	a5,t4
    5224:	00072e83          	lw	t4,0(a4)
    5228:	01d888b3          	add	a7,a7,t4
    522c:	6b194ce3          	blt	s2,a7,60e4 <matrix_test+0x19f4>
    5230:	01d7a7b3          	slt	a5,a5,t4
    5234:	00f507b3          	add	a5,a0,a5
    5238:	01079513          	slli	a0,a5,0x10
    523c:	41055513          	srai	a0,a0,0x10
    5240:	00180813          	addi	a6,a6,1
    5244:	00470713          	addi	a4,a4,4
    5248:	000e8793          	mv	a5,t4
    524c:	00072e83          	lw	t4,0(a4)
    5250:	01d888b3          	add	a7,a7,t4
    5254:	651940e3          	blt	s2,a7,6094 <matrix_test+0x19a4>
    5258:	01d7a7b3          	slt	a5,a5,t4
    525c:	00f507b3          	add	a5,a0,a5
    5260:	01079513          	slli	a0,a5,0x10
    5264:	41055513          	srai	a0,a0,0x10
    5268:	00180813          	addi	a6,a6,1
    526c:	00470713          	addi	a4,a4,4
    5270:	000e8793          	mv	a5,t4
    5274:	00072e83          	lw	t4,0(a4)
    5278:	01d888b3          	add	a7,a7,t4
    527c:	5d1944e3          	blt	s2,a7,6044 <matrix_test+0x1954>
    5280:	01d7a7b3          	slt	a5,a5,t4
    5284:	00f507b3          	add	a5,a0,a5
    5288:	01079513          	slli	a0,a5,0x10
    528c:	41055513          	srai	a0,a0,0x10
    5290:	00180813          	addi	a6,a6,1
    5294:	00470713          	addi	a4,a4,4
    5298:	000e8793          	mv	a5,t4
    529c:	00072e83          	lw	t4,0(a4)
    52a0:	01d888b3          	add	a7,a7,t4
    52a4:	571942e3          	blt	s2,a7,6008 <matrix_test+0x1918>
    52a8:	01d7a7b3          	slt	a5,a5,t4
    52ac:	00f507b3          	add	a5,a0,a5
    52b0:	01079513          	slli	a0,a5,0x10
    52b4:	41055513          	srai	a0,a0,0x10
    52b8:	00180813          	addi	a6,a6,1
    52bc:	00470713          	addi	a4,a4,4
    52c0:	000e8793          	mv	a5,t4
    52c4:	00072e83          	lw	t4,0(a4)
    52c8:	01d888b3          	add	a7,a7,t4
    52cc:	4d194ce3          	blt	s2,a7,5fa4 <matrix_test+0x18b4>
    52d0:	01d7a7b3          	slt	a5,a5,t4
    52d4:	00f507b3          	add	a5,a0,a5
    52d8:	01079513          	slli	a0,a5,0x10
    52dc:	41055513          	srai	a0,a0,0x10
    52e0:	00180813          	addi	a6,a6,1
    52e4:	00470713          	addi	a4,a4,4
    52e8:	1a8866e3          	bltu	a6,s0,5c94 <matrix_test+0x15a4>
    52ec:	00168693          	addi	a3,a3,1
    52f0:	00860633          	add	a2,a2,s0
    52f4:	e686e8e3          	bltu	a3,s0,5164 <matrix_test+0xa74>
    52f8:	2e9030ef          	jal	8de0 <crc16>
    52fc:	000c0f93          	mv	t6,s8
    5300:	000c8e93          	mv	t4,s9
    5304:	00000f13          	li	t5,0
    5308:	00050593          	mv	a1,a0
    530c:	000b8893          	mv	a7,s7
    5310:	000f8e13          	mv	t3,t6
    5314:	00000313          	li	t1,0
    5318:	00089783          	lh	a5,0(a7)
    531c:	000e9703          	lh	a4,0(t4)
    5320:	fff40613          	addi	a2,s0,-1
    5324:	00100513          	li	a0,1
    5328:	02f70733          	mul	a4,a4,a5
    532c:	00367613          	andi	a2,a2,3
    5330:	002e8813          	addi	a6,t4,2
    5334:	009886b3          	add	a3,a7,s1
    5338:	40275793          	srai	a5,a4,0x2
    533c:	40575713          	srai	a4,a4,0x5
    5340:	00f7f793          	andi	a5,a5,15
    5344:	07f77713          	andi	a4,a4,127
    5348:	02e787b3          	mul	a5,a5,a4
    534c:	14857a63          	bgeu	a0,s0,54a0 <matrix_test+0xdb0>
    5350:	0a060263          	beqz	a2,53f4 <matrix_test+0xd04>
    5354:	06a60663          	beq	a2,a0,53c0 <matrix_test+0xcd0>
    5358:	00200293          	li	t0,2
    535c:	02560a63          	beq	a2,t0,5390 <matrix_test+0xca0>
    5360:	00069603          	lh	a2,0(a3)
    5364:	002e9703          	lh	a4,2(t4)
    5368:	00028513          	mv	a0,t0
    536c:	004e8813          	addi	a6,t4,4
    5370:	02c70733          	mul	a4,a4,a2
    5374:	009686b3          	add	a3,a3,s1
    5378:	40275613          	srai	a2,a4,0x2
    537c:	40575713          	srai	a4,a4,0x5
    5380:	00f67613          	andi	a2,a2,15
    5384:	07f77713          	andi	a4,a4,127
    5388:	02e60733          	mul	a4,a2,a4
    538c:	00e787b3          	add	a5,a5,a4
    5390:	00069603          	lh	a2,0(a3)
    5394:	00081703          	lh	a4,0(a6)
    5398:	00150513          	addi	a0,a0,1
    539c:	00280813          	addi	a6,a6,2
    53a0:	02c70733          	mul	a4,a4,a2
    53a4:	009686b3          	add	a3,a3,s1
    53a8:	40275613          	srai	a2,a4,0x2
    53ac:	40575713          	srai	a4,a4,0x5
    53b0:	00f67613          	andi	a2,a2,15
    53b4:	07f77713          	andi	a4,a4,127
    53b8:	02e60733          	mul	a4,a2,a4
    53bc:	00e787b3          	add	a5,a5,a4
    53c0:	00069603          	lh	a2,0(a3)
    53c4:	00081703          	lh	a4,0(a6)
    53c8:	00150513          	addi	a0,a0,1
    53cc:	00280813          	addi	a6,a6,2
    53d0:	02c70733          	mul	a4,a4,a2
    53d4:	009686b3          	add	a3,a3,s1
    53d8:	40275613          	srai	a2,a4,0x2
    53dc:	40575713          	srai	a4,a4,0x5
    53e0:	00f67613          	andi	a2,a2,15
    53e4:	07f77713          	andi	a4,a4,127
    53e8:	02e60733          	mul	a4,a2,a4
    53ec:	00e787b3          	add	a5,a5,a4
    53f0:	0a857863          	bgeu	a0,s0,54a0 <matrix_test+0xdb0>
    53f4:	00069603          	lh	a2,0(a3)
    53f8:	00081703          	lh	a4,0(a6)
    53fc:	009686b3          	add	a3,a3,s1
    5400:	00069a03          	lh	s4,0(a3)
    5404:	00281383          	lh	t2,2(a6)
    5408:	009686b3          	add	a3,a3,s1
    540c:	00069b03          	lh	s6,0(a3)
    5410:	00481283          	lh	t0,4(a6)
    5414:	009686b3          	add	a3,a3,s1
    5418:	02c70733          	mul	a4,a4,a2
    541c:	00069a83          	lh	s5,0(a3)
    5420:	00681603          	lh	a2,6(a6)
    5424:	00450513          	addi	a0,a0,4
    5428:	00880813          	addi	a6,a6,8
    542c:	009686b3          	add	a3,a3,s1
    5430:	034383b3          	mul	t2,t2,s4
    5434:	40275a13          	srai	s4,a4,0x2
    5438:	40575713          	srai	a4,a4,0x5
    543c:	00fa7a13          	andi	s4,s4,15
    5440:	07f77713          	andi	a4,a4,127
    5444:	036282b3          	mul	t0,t0,s6
    5448:	4023db13          	srai	s6,t2,0x2
    544c:	4053d393          	srai	t2,t2,0x5
    5450:	00fb7b13          	andi	s6,s6,15
    5454:	07f3f393          	andi	t2,t2,127
    5458:	03560633          	mul	a2,a2,s5
    545c:	4022da93          	srai	s5,t0,0x2
